
                   J E S 2  J O B  L O G  --  S Y S T E M  2 9 6 4  --  N O D E  S V S C J E S 2        

 
00.17.21 JOB08864 ---- SATURDAY,  19 NOV 2022 ----
00.17.21 JOB08864  IRR010I  USERID KC03E7D  IS ASSIGNED TO THIS JOB.
00.17.21 JOB08864  ICH70001I KC03E7D  LAST ACCESS AT 00:09:24 ON SATURDAY, NOVEMBER 19, 2022
00.17.21 JOB08864  $HASP373 KC03E7DA STARTED - INIT 1    - CLASS A        - SYS 2964
00.17.22 JOB08864  -                                      -----TIMINGS (MINS.)------                          -----PAGING COUNTS----
00.17.22 JOB08864  -STEPNAME PROCSTEP    RC   EXCP   CONN       TCB       SRB  CLOCK          SERV  WORKLOAD  PAGE  SWAP   VIO SWAPS
00.17.22 JOB08864  -JSTEP01              00     87     31       .00       .00     .0            15  BATCH        0     0     0     0
00.17.22 JOB08864  -JSTEP02              00     65     11       .00       .00     .0             5  BATCH        0     0     0     0
00.17.23 JOB08864  -JSTEP03              00     69     22       .00       .00     .0             8  BATCH        0     0     0     0
00.17.23 JOB08864  -KC03E7DA ENDED.  NAME-R. SIMON             TOTAL TCB CPU TIME=      .00 TOTAL ELAPSED TIME=    .0
00.17.23 JOB08864  $HASP395 KC03E7DA ENDED - RC=0000

------ JES2 JOB STATISTICS ------


  19 NOV 2022 JOB EXECUTION DATE


          661 CARDS READ


        1,396 SYSOUT PRINT RECORDS


            0 SYSOUT PUNCH RECORDS


          111 SYSOUT SPOOL KBYTES


         0.03 MINUTES EXECUTION TIME
!! END OF JES SPOOL FILE !!
       1 //KC03E7DA JOB ,'R. SIMON',MSGCLASS=H                                   JOB08864
         //*                                                                             
         //*****************************************************************             
         //*                                                               *             
         //*  CSCI 465               ASSIGNMENT 6               FALL 2022  *             
         //*                                                               *             
         //*  DEVELOPER NAME: Rick Simon                                   *             
         //*        DUE DATE: 11/11/2022                                   *             
         //*                                                               *             
         //*  PURPOSE: THIS ASSIGNMENT GENERATES A REPORT OF BROKERS'      *             
         //*           DEPOSIT AMOUNTS, SHARES SOLD, AND COMMISSIONS.      *             
         //*           IT TAKES BROKERS WHO HAVE SOLD OVER 50,000 SHARES   *             
         //*           AND PUTS THEM IN A SEPARATE HIGH SALES REPORT TO    *             
         //*           DISPLAY SEPARATELY.                                 *             
         //*                                                               *             
         //*****************************************************************             
         //*                                                                             
       2 //JSTEP01  EXEC PGM=ASMA90,PARM=ASA                                             
         //*                                                                             
         //*****************************************************************             
         //*                                                               *             
         //*  JSTEP01 assembles the Assembler source code using the high   *             
         //*  level assembler.                                             *             
         //*                                                               *             
         //*  SYSLIB     INPUT:   Provides the macros needed for assembler *             
         //*  SYSIN      INPUT:   Assembler source code to be compiled     *             
         //*                                                               *             
         //*  SYSLIN    OUTPUT:   The resulting object module              *             
         //*  SYSPRINT  OUTPUT:   Source listing, diagnostic messages      *             
         //*                                                               *             
         //*****************************************************************             
         //*                                                                             
       3 //SYSLIB   DD DSN=SYS1.MACLIB,DISP=SHR                                          
         //*                                                                             
       4 //SYSIN    DD *                                                                 
         //*                                                                             
       5 //SYSLIN   DD DSN=&&OBJMOD,                                                     
         //            SPACE=(CYL,(1,1)),                                                
         //            DISP=(MOD,PASS)                                                   
         //*                                                                             
       6 //SYSPRINT DD SYSOUT=*                                                          
         //*                                                                             
         //****************************************************************              
         //*  This data set is required by the high level assembler      *               
         //****************************************************************              
         //*                                                                             
       7 //SYSUT1   DD SPACE=(CYL,(1,1))                                                 
         //*                                                                             
       8 //JSTEP02  EXEC PGM=IEWBLINK,COND=(0,LT)                                        
         //*                                                                             
         //*****************************************************************             
         //*                                                               *             
         //*  JSTEP02 creates a load module from the input object module   *             
         //*  and stores it as a program object.                           *             
         //*                                                               *             
         //*  SYSLIB     INPUT:   Load module libraries needed by the      *             
         //*                      loader module for an Assembler object    *             
         //*                      module                                   *             
         //*  SYSLIN     INPUT:   The object module                        *             
         //*                                                               *             
         //*  SYSLMOD   OUTPUT:   Where the executable file is stored      *             
         //*  SYSPRINT  OUTPUT:   Loader diagnostic messages               *             
         //*                                                               *             
         //*****************************************************************             
         //*                                                                             
       9 //SYSLIB   DD DSN=CEE.SCEELKEX,DISP=SHR                                         
      10 //         DD DSN=CEE.SCEELKED,DISP=SHR                                         
      11 //         DD DSN=USER.LINKLIB,DISP=SHR                                         
         //*                                                                             
      12 //SYSLIN   DD DSN=&&OBJMOD,DISP=(OLD,DELETE,DELETE)                             
         //*                                                                             
      13 //SYSLMOD  DD DSN=KC03E7D.CSCI465.LOADLIB(ASSIGN6),                             
         //            SPACE=(1024,(50,20,1)),                                           
         //            DSNTYPE=LIBRARY,                                                  
         //            DISP=(MOD,KEEP,KEEP)                                              
         //*                                                                             
      14 //SYSPRINT DD SYSOUT=*                                                          
         //*                                                                             
      15 //JSTEP03  EXEC PGM=ASSIGN6,COND=(0,LT)                                         
         //*                                                                             
         //*****************************************************************             
         //*                                                               *             
         //*  JSTEP03 uses the following data sets to fetch and execute    *             
         //*  the program.                                                 *             
         //*                                                               *             
         //*  STEPLIB    INPUT:   Location of the program object ASSIGN6   *             
         //*  SALESFLE   INPUT:   Input file ASN6DATA                      *             
         //*                                                               *             
         //*  HSFLE  IN/OUTPUT:   File that will be written to with high   *             
         //*                      sales lines and output into RPTFLE       *             
         //*                                                               *             
         //*  RPTFLE    OUTPUT:   Output of the data read from ASN3DATA    *             
         //*  SYSUDUMP  OUTPUT:   System dump if ABEND                     *             
         //*                                                               *             
         //*****************************************************************             
         //*                                                                             
      16 //STEPLIB  DD DSN=KC03E7D.CSCI465.LOADLIB,DISP=SHR                              
         //*                                                                             
      17 //SALEFLE  DD DSN=KC02322.CSCI465.ASNDATA(ASN6DATA),DISP=SHR                    
         //*                                                                             
      18 //HSFLE    DD SPACE=(TRK,(1,1))                                                 
         //*                                                                             
      19 //RPTFLE   DD SYSOUT=*                                                          
         //*                                                                             
      20 //SYSUDUMP DD SYSOUT=*                                                          
      21 //                                                                              
!! END OF JES SPOOL FILE !!
ICH70001I KC03E7D  LAST ACCESS AT 00:09:24 ON SATURDAY, NOVEMBER 19, 2022
IEFA111I KC03E7DA IS USING THE FOLLOWING JOB RELATED SETTINGS:
         SWA=ABOVE,TIOT SIZE=32K,DSENQSHR=DISALLOW,GDGBIAS=JOB
IEF236I ALLOC. FOR KC03E7DA JSTEP01
IEF237I 1001 ALLOCATED TO SYSLIB
IEF237I JES2 ALLOCATED TO SYSIN
IGD101I SMS ALLOCATED TO DDNAME (SYSLIN  )
        DSN (SYS22323.T001721.RA000.KC03E7DA.OBJMOD.H01  )
        STORCLAS (TEMPSC) MGMTCLAS (        ) DATACLAS (        )
        VOL SER NOS= TEMP00                                                                
IEF237I JES2 ALLOCATED TO SYSPRINT
IGD101I SMS ALLOCATED TO DDNAME (SYSUT1  )
        DSN (SYS22323.T001721.RA000.KC03E7DA.R0143257    )
        STORCLAS (TEMPSC) MGMTCLAS (        ) DATACLAS (        )
        VOL SER NOS= TEMP00                                                                
IEF142I KC03E7DA JSTEP01 - STEP WAS EXECUTED - COND CODE 0000
IEF285I   SYS1.MACLIB                                  KEPT          
IEF285I   VOL SER NOS= VTMVSC.                            
IEF285I   KC03E7D.KC03E7DA.JOB08864.D0000101.?         SYSIN         
IGD106I SYS22323.T001721.RA000.KC03E7DA.OBJMOD.H01   PASSED,    DDNAME=SYSLIN  
IEF285I   KC03E7D.KC03E7DA.JOB08864.D0000102.?         SYSOUT        
IGD105I SYS22323.T001721.RA000.KC03E7DA.R0143257     DELETED,   DDNAME=SYSUT1  
IEF373I STEP/JSTEP01 /START 2022323.0017
IEF032I STEP/JSTEP01 /STOP  2022323.0017 
        CPU:     0 HR  00 MIN  00.01 SEC    SRB:     0 HR  00 MIN  00.00 SEC    
        VIRT:   248K  SYS:   252K  EXT:    32768K  SYS:    11296K
        ATB- REAL:                  1068K  SLOTS:                     0K
             VIRT- ALLOC:      16M SHRD:       0M
IEF236I ALLOC. FOR KC03E7DA JSTEP02
IEF237I 1001 ALLOCATED TO SYSLIB
IEF237I 1001 ALLOCATED TO 
IEF237I A011 ALLOCATED TO 
IGD103I SMS ALLOCATED TO DDNAME SYSLIN
IGD103I SMS ALLOCATED TO DDNAME SYSLMOD
IEF237I JES2 ALLOCATED TO SYSPRINT
IEF142I KC03E7DA JSTEP02 - STEP WAS EXECUTED - COND CODE 0000
IEF285I   CEE.SCEELKEX                                 KEPT          
IEF285I   VOL SER NOS= VTMVSC.                            
IEF285I   CEE.SCEELKED                                 KEPT          
IEF285I   VOL SER NOS= VTMVSC.                            
IEF285I   USER.LINKLIB                                 KEPT          
IEF285I   VOL SER NOS= Z1SYS1.                            
IGD105I SYS22323.T001721.RA000.KC03E7DA.OBJMOD.H01   DELETED,   DDNAME=SYSLIN  
IGD104I KC03E7D.CSCI465.LOADLIB                      RETAINED,  DDNAME=SYSLMOD 
IEF285I   KC03E7D.KC03E7DA.JOB08864.D0000103.?         SYSOUT        
IEF373I STEP/JSTEP02 /START 2022323.0017
IEF032I STEP/JSTEP02 /STOP  2022323.0017 
        CPU:     0 HR  00 MIN  00.00 SEC    SRB:     0 HR  00 MIN  00.00 SEC    
        VIRT:   144K  SYS:   256K  EXT:     1640K  SYS:    11244K
        ATB- REAL:                  1068K  SLOTS:                     0K
             VIRT- ALLOC:      15M SHRD:       0M
IEF236I ALLOC. FOR KC03E7DA JSTEP03
IGD103I SMS ALLOCATED TO DDNAME STEPLIB
IGD103I SMS ALLOCATED TO DDNAME SALEFLE
IGD101I SMS ALLOCATED TO DDNAME (HSFLE   )
        DSN (SYS22323.T001721.RA000.KC03E7DA.R0143258    )
        STORCLAS (TEMPSC) MGMTCLAS (        ) DATACLAS (        )
        VOL SER NOS= TEMP00                                                                
IEF237I JES2 ALLOCATED TO RPTFLE
IEF237I JES2 ALLOCATED TO SYSUDUMP
IEF142I KC03E7DA JSTEP03 - STEP WAS EXECUTED - COND CODE 0000
IGD104I KC03E7D.CSCI465.LOADLIB                      RETAINED,  DDNAME=STEPLIB 
IGD104I KC02322.CSCI465.ASNDATA                      RETAINED,  DDNAME=SALEFLE 
IGD105I SYS22323.T001721.RA000.KC03E7DA.R0143258     DELETED,   DDNAME=HSFLE   
IEF285I   KC03E7D.KC03E7DA.JOB08864.D0000104.?         SYSOUT        
IEF285I   KC03E7D.KC03E7DA.JOB08864.D0000105.?         SYSOUT        
IEF373I STEP/JSTEP03 /START 2022323.0017
IEF032I STEP/JSTEP03 /STOP  2022323.0017 
        CPU:     0 HR  00 MIN  00.00 SEC    SRB:     0 HR  00 MIN  00.00 SEC    
        VIRT:    20K  SYS:   264K  EXT:        0K  SYS:    11428K
        ATB- REAL:                  1068K  SLOTS:                     0K
             VIRT- ALLOC:      15M SHRD:       0M
IEF375I  JOB/KC03E7DA/START 2022323.0017
IEF033I  JOB/KC03E7DA/STOP  2022323.0017 
        CPU:     0 HR  00 MIN  00.01 SEC    SRB:     0 HR  00 MIN  00.00 SEC    
!! END OF JES SPOOL FILE !!

                                         High Level Assembler Option Summary                   (PTF UI68060)   Page    1            


                                                                                            HLASM R6.0  2022/11/19 00.17            

  No Overriding ASMAOPT Parameters                                                                                                  
  Overriding Parameters-  ASA                                                                                                       
  No Process Statements                                                                                                             
                                                                                                                                    
                                                                                                                                    
  Options for this Assembly                                                                                                         

                    NOADATA                                                                                                         
                      ALIGN                                                                                                         
3 PARM/OPTION         ASA                                                                                                           
                      BATCH                                                                                                         
                      CODEPAGE(047C)                                                                                                
                    NOCOMPAT                                                                                                        
                    NODATAMAP                                                                                                       
                    NODBCS                                                                                                          
                    NODECK                                                                                                          
                      DXREF                                                                                                         
                      ESD                                                                                                           
                    NOEXIT                                                                                                          
                      FAIL(NOMSG,NOMNOTE,MAXERRS(500))                                                                              
                      FLAG(0,ALIGN,CONT,EXLITW,NOIMPLEN,NOLONGER,NOPAGE0,PUSH,RECORD,NOSIGNED,NOSUBSTR,NOTRUNC,USING0)              
                    NOFOLD                                                                                                          
                    NOGOFF                                                                                                          
                    NOINFO                                                                                                          
                      ILMA                                                                                                          
                      LANGUAGE(EN)                                                                                                  
                    NOLIBMAC                                                                                                        
                      LINECOUNT(60)                                                                                                 
                      LIST(121)                                                                                                     
                      MACHINE(,NOLIST)                                                                                              
                      MXREF(SOURCE)                                                                                                 
                      OBJECT                                                                                                        
                      OPTABLE(UNI,NOLIST)                                                                                           
                    NOPCONTROL                                                                                                      
                    NOPESTOP                                                                                                        
                    NOPROFILE                                                                                                       
                    NORA2                                                                                                           
                    NORENT                                                                                                          
                      RLD                                                                                                           
                      RXREF                                                                                                         
                      SECTALGN(8)                                                                                                   
                      SIZE(MAX)                                                                                                     
                    NOSUPRWARN                                                                                                      
                      SYSPARM()                                                                                                     
                    NOTERM                                                                                                          
                    NOTEST                                                                                                          
                      THREAD                                                                                                        
                    NOTRANSLATE                                                                                                     
                      TYPECHECK(MAGNITUDE,REGISTER)                                                                                 
                      USING(NOLIMIT,MAP,WARN(15))                                                                                   
                    NOWORKFILE                                                                                                      
                      XREF(SHORT,UNREFS)                                                                                            
                                                                                                                                    
  No Overriding DD Names                                                                                                            

                                              External Symbol Dictionary                                       Page    2            


Symbol   Type   Id     Address  Length   Owner Id Flags Alias-of                            HLASM R6.0  2022/11/19 00.17            

ASSIGN6   SD 00000001 00000000 000010E8             00                                                                              

                                                                                                               Page    3            
  Active Usings: None                                                                                                               

  Loc  Object Code    Addr1 Addr2  Stmt   Source Statement                                  HLASM R6.0  2022/11/19 00.17            

                                      1          PRINT  NOGEN                MACRO CALL SUPPRESSION                                 
                                      2 ******************************************************************                          
                                      3 *                                                                *                          
                                      4 * PROGRAM NAME: ASSIGN6                                          *                          
                                      5 * PROGRAMMER:   RICK SIMON                                       *                          
                                      6 * DUE DATE:     11/11/2022                                       *                          
                                      7 *                                                                *                          
                                      8 * FUNCTION:  THIS PROGRAM READS INPUT DATA RECORDS AND THEN      *                          
                                      9 *            WRITES THEM TO STANDARD OUTPUT.                     *                          
                                     10 *                                                                *                          
                                     11 * INPUT:     INDATA - THE INPUT DATA RECORDS READ IN.            *                          
                                     12 *                                                                *                          
                                     13 * OUTPUT:    REPORT - THE INPUT DATA RECORDS WRITTEN OUT.        *                          
                                     14 *                                                                *                          
                                     15 * ENTRY CONDITIONS: NONE.                                        *                          
                                     16 *                                                                *                          
                                     17 * EXIT CONDITIONS:  R15 RETURNS A RETURN CODE.                   *                          
                                     18 *                                                                *                          
                                     19 * NOTES: NONE.                                                   *                          
                                     20 *                                                                *                          
                                     21 ******************************************************************                          
000000                00000 0003A    22 $FUNDREC DSECT                                                                              
000000                               23 $SHRPRC  DS    ZL5                                                                          
000005                               24 $FUNDNME DS    CL35                                                                         
000028                               25 $COMPCT1 DS    ZL6                                                                          
00002E                               26 $COMPCT2 DS    ZL6                                                                          
000034                               27 $COMPCT3 DS    ZL6                                                                          
                                     28 *                                                                                           
000000                00000 0003C    29 $SALEREC DSECT                                                                              
000000                               30 $BRNCNME DS    CL20                                                                         
000014                               31 $BRKRNME DS    CL25                                                                         
00002D                               32 $DEPAMT  DS    ZL10                                                                         
000037                               33          DS    CL4                                                                          
00003B                               34 $COMMFLG DS    ZL1                                                                          
                                     35 *                                                                                           
000000                00000 010E8    36 ASSIGN6 CSECT                        BEGIN ASSIGN6                                          
                                     37 *                                                                                           
000000 90EC D00C            0000C    38          STM   14,12,12(13)          SAVE CALLER'S REGS                                     
000004 18CF                          39          LR    12,15                 SET REG 12 TO REG 15                                   
                 R:C  00000          40          USING ASSIGN6,12            ESTABLISH REG 12 AS 1ST BASE REG                       
000006 41E0 C6C0            006C0    41          LA    14,REGS               REG 14 -> CURRENT SAVE AREA                            
00000A 50D0 E004            00004    42          ST    13,4(,14)             SAVE CALLER'S SAVE AREA ADDR                           
00000E 50E0 E008            00008    43          ST    14,8(,14)             SAVE CURRENT SAVE AREA ADDR                            
000012 18DE                          44          LR    13,14                 REG 13 -> CURRENT SAVE AREA                            
                                     45 *                                                                                           
000014 41B0 CFFF            00FFF    46          LA    11,4095(,12)                                                                 
000018 41B0 B001            00001    47          LA    11,1(,11)                                                                    
                 R:B  01000          48          USING ASSIGN6+4096,11                                                              
                                     49 *                                                                                           
00001C 5110 0000            00000    50          TIME  DEC,DATETIME,LINKAGE=SYSTEM,DATETYPE=MMDDYYYY                                
                                     74 *                                                                                           
000066 D20C C99C C5DC 0099C 005DC    75          MVC   OHDRDTE-3(13),=X'40202120206120206120202020'                                 
00006C DE0C C99C CFAF 0099C 00FAF    76          ED    OHDRDTE-3(13),DATETIME+7                                                     
000072 92F1 C99E      0099E          77          MVI   HEADER1,C'1'                                                                 
                                     78 *                                                                                           

                                                                                                               Page    4            
  Active Usings: ASSIGN6+X'1000',R11  ASSIGN6,R12                                                                                   

  Loc  Object Code    Addr1 Addr2  Stmt   Source Statement                                  HLASM R6.0  2022/11/19 00.17            

000076 D206 CA23 C5E9 00A23 005E9    79          MVC   OHDRTME-2(7),=X'402120207A2020'                                              
00007C DE06 CA23 CFA6 00A23 00FA6    80          ED    OHDRTME-2(7),DATETIME-2                                                      
                                     81 *                                                                                           
000082 0700                          82          OPEN  (SALEDCB,(INPUT))     OPEN INPUT FILE                                        
00008E 12FF                          89          LTR   15,15                 CHECK FOR SUCCESSFUL OPEN                              
000090 4780 C0A4            000A4    90          BZ    OPENOK1               BRANCH IF SUCCESSFUL TO OPENOK1                        
000094 4110 00DE            000DE    91          ABEND 222,DUMP              ABEND IF OPEN FAILS & DISPLAY 222                      
                                    101 *                                                                                           
0000A4 4D10 C0AC            000AC   102 OPENOK1  OPEN  (RPTDCB,(OUTPUT))     OPEN OUTPUT FILE                                       
0000AE 12FF                         109          LTR   15,15                 CHECK FOR SUCCESSFUL OPEN                              
0000B0 4780 C0C4            000C4   110          BZ    OPENOK2               BRANCH IF SUCCESSFUL TO OPENOK2                        
0000B4 4110 014D            0014D   111          ABEND 333,DUMP              ABEND IF OPEN FAILS & DISPLAY 333                      
                                    121 *                                                                                           
0000C4 4D10 C0CC            000CC   122 OPENOK2  OPEN  (HSDCB,(OUTPUT))                                                             
0000CE 12FF                         129          LTR   15,15                                                                        
0000D0 4780 C0E4            000E4   130          BZ    OPENOK3                                                                      
0000D4 4110 01BC            001BC   131          ABEND 444,DUMP                                                                     
                                    141 *                                                                                           
0000E4 4110 CFB8            00FB8   142 OPENOK3  GET   SALEDCB,RECORD          READ FUND RECORD                                     
                                    151 *                                                                                           
0000F4 95E8 B018      01018         152          CLI   EOFFLAG,C'Y'                                                                 
0000F8 4780 C598            00598   153          BE    ENDPGM                                                                       
                                    154 *                                                                                           
0000FC 4130 CB2E            00B2E   155          LA    3,RECORD                REG 3 -> RECORD                                      
                 R:3  00000         156          USING $FUNDREC,3              EST ADDRESSABILITY FOR DSECT                         
                                    157 *                                                                                           
000100 F224 C722 3000 00722 00000   158          PACK  PSHRPRC(3),$SHRPRC(5)   SAVE SHARE PRICE INTO STORAGE                        
000106 D222 C9D0 3005 009D0 00005   159          MVC   OFUNDNME(35),$FUNDNME   MOVE FUND NAME TO HEADER                             
00010C F235 C725 3028 00725 00028   160          PACK  PCOMPCT1(4),$COMPCT1(6) MOVE COMM PCT 1 INTO STORAGE                         
000112 F235 C729 302E 00729 0002E   161          PACK  PCOMPCT2(4),$COMPCT2(6) MOVE COMM PCT 2 INTO STORAGE                         
000118 F235 C72D 3034 0072D 00034   162          PACK  PCOMPCT3(4),$COMPCT3(6) MOVE COMM PCT 3 INTO STORAGE                         
00011E 4110 CAF1            00AF1   163          LA    1,OSHRPRC+3                                                                  
000122 D206 CAEE C5F0 00AEE 005F0   164          MVC   OSHRPRC(7),=X'402021204B2020'                                                
000128 DF06 CAEE C722 00AEE 00722   165          EDMK  OSHRPRC(7),PSHRPRC                                                           
00012E 0610                         166          BCTR  1,0                                                                          
000130 925B 1000      00000         167          MVI   0(1),C'$'                                                                    
                                    168 *                                                                                           
                                    169          DROP  3                       RELEASE ADDRESSABILITY FOR REG 3                     
                                    170 *                                                                                           
000134 4120 0063            00063   171          LA    2,99                    LINE COUNTER REG = 99                                
                                    172 *                                                                                           
                 R:3  00000         173          USING $SALEREC,3                                                                   
                                    174 *                                                                                           
000138 4110 CFB8            00FB8   175          GET   SALEDCB,RECORD          READ THE FIRST RECORD                                
                                    184 *                                                                                           
000148 95E8 B018      01018         185 LOOP1    CLI   EOFFLAG,C'Y'            CHECK FOR END OF INPUT DATA                          
00014C 4780 C32E            0032E   186          BE    ENDLOOP1                BRANCH TO ENDLOOP1 IF EOF                            
                                    187 *                                                                                           
000150 FA10 C708 C5F7 00708 005F7   188          AP    RECCTR(2),=PL1'1'       ADD 1 TO RECORD COUNTER                              
                                    189 *                                                                                           
000156 D213 C788 3000 00788 00000   190          MVC   OBRNCNME(20),$BRNCNME   MOVE BRANCH NAME FROM INPUT                          
00015C D218 C7A9 3014 007A9 00014   191          MVC   OBRKRNME(25),$BRKRNME   MOVE BROKER NAME FROM INPUT                          
000162 F259 C731 302D 00731 0002D   192          PACK  PDEPAMT(6),$DEPAMT(10)  MOVE DEPOSIT AMOUNT TO STORAGE                       
                                    193 *                                                                                           
000168 4110 C7D5            007D5   194          LA    1,ODEPAMT+11                                                                 

                                                                                                               Page    5            
  Active Usings: $SALEREC,R3  ASSIGN6+X'1000',R11  ASSIGN6,R12                                                                      

  Loc  Object Code    Addr1 Addr2  Stmt   Source Statement                                  HLASM R6.0  2022/11/19 00.17            

00016C D20E C7CA C5F8 007CA 005F8   195          MVC   ODEPAMT(15),=X'402020206B2020206B2021204B2020'                               
000172 DF0E C7CA C731 007CA 00731   196          EDMK  ODEPAMT(15),PDEPAMT     EDIT DEPAMT INTO PRINT LINE                          
000178 0610                         197          BCTR  1,0                     DECREMENT REG 1 BY 1                                 
00017A 925B 1000      00000         198          MVI   0(1),C'$'               PLACE THE DOLLAR SIGN                                
                                    199 *                                                                                           
00017E FA65 C745 C731 00745 00731   200          AP    PTDEPAMT(7),PDEPAMT     ADD DEP AMT TO TOTAL                                 
                                    201 *                                                                                           
000184 F8A5 C70C C731 0070C 00731   202          ZAP   PSHRCALC(11),PDEPAMT    COPY DEP AMT INTO LARGER FIELD                       
00018A F0A0 C70C 0004 0070C 00004   203          SRP   PSHRCALC(11),4,0        A 4 DEC PLCS, NO ROUNDING                            
000190 FDA2 C70C C722 0070C 00722   204          DP    PSHRCALC(11),PSHRPRC(3) DIVIDE DEP AMT BY SHR PRC                            
000196 F075 C70C 003F 0070C 0003F   205          SRP   PSHRCALC(8),64-1,5      SHIFT 1 AND ROUND                                    
00019C F070 C70C 0001 0070C 00001   206          SRP   PSHRCALC(8),1,0         ADD A ZERO TO THE END                                
0001A2 D213 C7E0 C5C0 007E0 005C0   207          MVC   OSHRAMT(20),=X'4020206B2020206B2020206B2021204B20202020'                     
0001A8 DE13 C7E0 C70C 007E0 0070C   208          ED    OSHRAMT(20),PSHRCALC    MOVE CALC INTO SHR AMT                               
                                    209 *                                                                                           
0001AE FA87 C74C C70C 0074C 0070C   210          AP    PTSHRAMT(9),PSHRCALC(8) ADD SHARE AMT TO TOTAL                               
                                    211 *                                                                                           
0001B4 F977 C70C C5B8 0070C 005B8   212          CP    PSHRCALC(8),=PL8'50000.0000'                                                 
0001BA 47D0 C1DA            001DA   213          BNH   CHECKCOM                                                                     
                                    214 *                                                                                           
0001BE D218 C766 3014 00766 00014   215          MVC   HSBRKNME(25),$BRKRNME   MOVE BROKER NAME TO HS REC                           
0001C4 F877 C77F C70C 0077F 0070C   216          ZAP   HSSHRAMT(8),PSHRCALC(8) COPY SHR AMT TO HS REC                               
                                    217 *                                                                                           
0001CA 4110 B080            01080   218          PUT   HSDCB,HSREC             WRITE TO HIGH SALES RECORD                           
                                    227 *                                                                                           
0001DA D200 C99B 303B 0099B 0003B   228 CHECKCOM MVC   ICOMMFLG(1),$COMMFLG    MOVE COMMISSION FLAG TO STORAGE                      
0001E0 95F1 C99B      0099B         229          CLI   ICOMMFLG,C'1'                                                                
0001E4 4780 C1F8            001F8   230          BE    COMM1                                                                        
0001E8 95F2 C99B      0099B         231          CLI   ICOMMFLG,C'2'                                                                
0001EC 4780 C22A            0022A   232          BE    COMM2                                                                        
0001F0 95F3 C99B      0099B         233          CLI   ICOMMFLG,C'3'                                                                
0001F4 4780 C25C            0025C   234          BE    COMM3                                                                        
                                    235 *                                                                                           
0001F8 F8A5 C717 C731 00717 00731   236 COMM1    ZAP   PCOMCALC(11),PDEPAMT(6)                                                      
0001FE FCA3 C717 C725 00717 00725   237          MP    PCOMCALC(11),PCOMPCT1(4)                                                     
000204 F0A5 C717 003B 00717 0003B   238          SRP   PCOMCALC(11),64-5,5                                                          
00020A 4110 C808            00808   239          LA    1,OCOMAMT+11                                                                 
00020E D20E C7FD C5F8 007FD 005F8   240          MVC   OCOMAMT(15),=X'402020206B2020206B2021204B2020'                               
000214 DF0E C7FD C71C 007FD 0071C   241          EDMK  OCOMAMT(15),PCOMCALC+5                                                       
00021A 0610                         242          BCTR  1,0                                                                          
00021C 925B 1000      00000         243          MVI   0(1),C'$'                                                                    
000220 FA65 C755 C71C 00755 0071C   244          AP    PTCOMAMT(7),PCOMCALC+5(6)                                                    
000226 47F0 C28E            0028E   245          B     CONTINUE                                                                     
                                    246 *                                                                                           
00022A F8A5 C717 C731 00717 00731   247 COMM2    ZAP   PCOMCALC(11),PDEPAMT(6)                                                      
000230 FCA3 C717 C729 00717 00729   248          MP    PCOMCALC(11),PCOMPCT2(4)                                                     
000236 F0A5 C717 003B 00717 0003B   249          SRP   PCOMCALC(11),64-5,5                                                          
00023C 4110 C808            00808   250          LA    1,OCOMAMT+11                                                                 
000240 D20E C7FD C5F8 007FD 005F8   251          MVC   OCOMAMT(15),=X'402020206B2020206B2021204B2020'                               
000246 DF0E C7FD C71C 007FD 0071C   252          EDMK  OCOMAMT(15),PCOMCALC+5                                                       
00024C 0610                         253          BCTR  1,0                                                                          
00024E 925B 1000      00000         254          MVI   0(1),C'$'                                                                    
000252 FA65 C755 C71C 00755 0071C   255          AP    PTCOMAMT(7),PCOMCALC+5(6)                                                    
000258 47F0 C28E            0028E   256          B     CONTINUE                                                                     
                                    257 *                                                                                           

                                                                                                               Page    6            
  Active Usings: $SALEREC,R3  ASSIGN6+X'1000',R11  ASSIGN6,R12                                                                      

  Loc  Object Code    Addr1 Addr2  Stmt   Source Statement                                  HLASM R6.0  2022/11/19 00.17            

00025C F8A5 C717 C731 00717 00731   258 COMM3    ZAP   PCOMCALC(11),PDEPAMT(6)                                                      
000262 FCA3 C717 C72D 00717 0072D   259          MP    PCOMCALC(11),PCOMPCT3(4)                                                     
000268 F0A5 C717 003B 00717 0003B   260          SRP   PCOMCALC(11),64-5,5                                                          
00026E 4110 C808            00808   261          LA    1,OCOMAMT+11                                                                 
000272 D20E C7FD C5F8 007FD 005F8   262          MVC   OCOMAMT(15),=X'402020206B2020206B2021204B2020'                               
000278 DF0E C7FD C71C 007FD 0071C   263          EDMK  OCOMAMT(15),PCOMCALC+5                                                       
00027E 0610                         264          BCTR  1,0                                                                          
000280 925B 1000      00000         265          MVI   0(1),C'$'                                                                    
000284 FA65 C755 C71C 00755 0071C   266          AP    PTCOMAMT(7),PCOMCALC+5(6)                                                    
00028A 47F0 C28E            0028E   267          B     CONTINUE                                                                     
                                    268 *                                                                                           
00028E 5920 C5D4            005D4   269 CONTINUE C     2,=F'18'                CHECK IF TIME TO PRINT HEADERS                       
000292 4740 C304            00304   270          BL    NOHDRS                  TOO EARLY TO PRINT HEADERS                           
                                    271 *                                                                                           
000296 FA10 C70A C5F7 0070A 005F7   272          AP    PPAGECTR(2),=PL1'1'     ADD 1 TO PAGE COUNTER                                
00029C D203 CA1F C5D8 00A1F 005D8   273          MVC   OPAGECTR(4),=X'40202120'  MOVE IN EDIT PATTERN                               
0002A2 DE03 CA1F C70A 00A1F 0070A   274          ED    OPAGECTR(4),PPAGECTR    EDIT IN PAGE COUNTER                                 
                                    275 *                                                                                           
0002A8 4110 B020            01020   276          PUT   RPTDCB                  WRITE PAGE HEADER 1                                  
0002B4 D284 1000 C99E 00000 0099E   284          MVC   0(133,1),HEADER1                                                             
                                    285 *                                                                                           
0002BA 4110 B020            01020   286          PUT   RPTDCB                  WRITE PAGE HEADER 2                                  
0002C6 D284 1000 CA24 00000 00A24   294          MVC   0(133,1),HEADER2                                                             
                                    295 *                                                                                           
0002CC 4110 B020            01020   296          PUT   RPTDCB                  WRITE PAGE HEADER 3                                  
0002D8 D284 1000 CAA9 00000 00AA9   304          MVC   0(133,1),HEADER3                                                             
                                    305 *                                                                                           
0002DE 4110 B020            01020   306          PUT   RPTDCB                  WRITE COLUMN HEADERS                                 
0002EA D284 1000 CB7E 00000 00B7E   314          MVC   0(133,1),COLHDR                                                              
                                    315 *                                                                                           
0002F0 4110 B020            01020   316          PUT   RPTDCB                  WRITE COLUMN HYPHENS                                 
0002FC D284 1000 CC88 00000 00C88   324          MVC   0(133,1),HYPHENS                                                             
                                    325 *                                                                                           
000302 1B22                         326          SR    2,2                     CLEAR LINE COUNTER                                   
                                    327 *                                                                                           
000304 4110 B020            01020   328 NOHDRS   PUT   RPTDCB                  WRITE THE DETAIL LINE                                
000310 D284 1000 C787 00000 00787   336          MVC   0(133,1),DETAIL         COPY DETAIL TO OUTPUT                                
000316 4120 2001            00001   337          LA    2,1(,2)                 ADD 1 TO LINE COUNTER                                
                                    338 *                                                                                           
00031A 4110 CFB8            00FB8   339          GET   SALEDCB,RECORD          GET THE NEXT RECORD                                  
                                    348 *                                                                                           
00032A 47F0 C148            00148   349          B     LOOP1                   BRANCH TO TOP OF LOOP1                               
                                    350 *                                                                                           
                                    351          DROP  3                                                                            
                                    352 *                                                                                           
00032E FA10 C70A C5F7 0070A 005F7   353 ENDLOOP1 AP    PPAGECTR(2),=PL1'1'                                                          
000334 D203 CA1F C5D8 00A1F 005D8   354          MVC   OPAGECTR(4),=X'40202120'                                                     
00033A DE03 CA1F C70A 00A1F 0070A   355          ED    OPAGECTR(4),PPAGECTR                                                         
                                    356 *                                                                                           
000340 4110 B020            01020   357          PUT   RPTDCB                                                                       
00034C D284 1000 C99E 00000 0099E   365          MVC   0(133,1),HEADER1                                                             
                                    366 *                                                                                           
000352 D21C CA56 C607 00A56 00607   367          MVC   OSUBTTL(29),=C'BROKER SALES AND COMMISSIONS '                                
000358 D20C CA73 C624 00A73 00624   368          MVC   OSUBTTL+29(13),=C'REPORT TOTALS'                                             
00035E 4110 B020            01020   369          PUT   RPTDCB                                                                       

                                                                                                               Page    7            
  Active Usings: ASSIGN6+X'1000',R11  ASSIGN6,R12                                                                                   

  Loc  Object Code    Addr1 Addr2  Stmt   Source Statement                                  HLASM R6.0  2022/11/19 00.17            

00036A D284 1000 CA24 00000 00A24   377          MVC   0(133,1),HEADER2                                                             
                                    378 *                                                                                           
000370 4110 B020            01020   379          PUT   RPTDCB                                                                       
00037C D284 1000 CAA9 00000 00AA9   387          MVC   0(133,1),HEADER3                                                             
                                    388 *                                                                                           
000382 4110 B020            01020   389          PUT   RPTDCB                                                                       
00038E D284 1000 CC03 00000 00C03   397          MVC   0(133,1),TCOLHDR                                                             
                                    398 *                                                                                           
000394 4110 B020            01020   399          PUT   RPTDCB                                                                       
0003A0 D284 1000 CD0D 00000 00D0D   407          MVC   0(133,1),TOTHYPH                                                             
                                    408 *                                                                                           
0003A6 DE03 C8C4 C708 008C4 00708   409          ED    ORECCTR(4),RECCTR       EDIT REC COUNTER INTO TOTALS                         
                                    410 *                                                                                           
0003AC 4110 C8DF            008DF   411          LA    1,OTDEPAMT+14                                                                
0003B0 DF11 C8D1 C745 008D1 00745   412          EDMK  OTDEPAMT(18),PTDEPAMT   MOVE SUM OF DEPOSIT AMOUNTS                          
0003B6 0610                         413          BCTR  1,0                                                                          
0003B8 925B 1000      00000         414          MVI   0(1),C'$'                                                                    
                                    415 *                                                                                           
0003BC DE16 C8E7 C74C 008E7 0074C   416          ED    OTSHRAMT(23),PTSHRAMT                                                        
                                    417 *                                                                                           
0003C2 4110 C912            00912   418          LA    1,OTCOMAMT+14                                                                
0003C6 DF11 C904 C755 00904 00755   419          EDMK  OTCOMAMT(18),PTCOMAMT                                                        
0003CC 0610                         420          BCTR  1,0                                                                          
0003CE 925B 1000      00000         421          MVI   0(1),C'$'                                                                    
                                    422 *                                                                                           
0003D2 4110 B020            01020   423          PUT   RPTDCB                  WRITE THE TOTALS LINE                                
0003DE D284 1000 C891 00000 00891   431          MVC   0(133,1),TOTALS         COPY TOTALS TO OUTPUT                                
                                    432 *                                                                                           
0003E4 4D10 C3F0            003F0   433          CLOSE (SALEDCB,,HSDCB)        CLOSE THE TWO DCBs                                   
                                    442 *                                                                                           
0003F2 0700                         443          OPEN  (HSDCB,(INPUT))         OPEN HS FILE FOR INPUT                               
0003FE 12FF                         450          LTR   15,15                   CHECK FOR SUCCESSFUL OPEN                            
000400 4780 C414            00414   451          BZ    OPENOK4                 BRANCH IF SUCCESSFUL TO OPENOK4                      
000404 4110 022B            0022B   452          ABEND 555,DUMP                ABEND IF OPEN FAILS, DISPLAY 777                     
                                    462 *                                                                                           
000414 F810 C708 C631 00708 00631   463 OPENOK4  ZAP   RECCTR(2),=PL1'0'                                                            
                                    464 *                                                                                           
00041A 4120 0063            00063   465          LA    2,99                    LINE COUNTER REG = 99                                
                                    466 *                                                                                           
00041E F810 C70A C5F7 0070A 005F7   467          ZAP   PPAGECTR(2),=PL1'1'                                                          
                                    468 *                                                                                           
000424 4110 B080            01080   469          GET   HSDCB,HSREC             READ THE FIRST RECORD                                
                                    478 *                                                                                           
000434 95E8 B0E0      010E0         479 LOOP2    CLI   EOFFLAG2,C'Y'           CHECK FOR END OF INPUT DATA                          
000438 4780 C500            00500   480          BE    ENDLOOP2                                                                     
                                    481 *                                                                                           
00043C FA10 C708 C5F7 00708 005F7   482          AP    RECCTR(2),=PL1'1'       ADD 1 TO RECORD COUNTER                              
                                    483 *                                                                                           
000442 D218 C832 C766 00832 00766   484          MVC   OHBRKNME(25),HSBRKNME                                                        
                                    485 *                                                                                           
000448 DE13 C858 C77F 00858 0077F   486          ED    OHSHRAMT(20),HSSHRAMT                                                        
                                    487 *                                                                                           
00044E FA87 C75C C77F 0075C 0077F   488          AP    PHSTSHRS(9),HSSHRAMT                                                         
                                    489 *                                                                                           
000454 5920 C5D4            005D4   490          C     2,=F'18'                CHECK IF TIME TO PRINT HEADERS                       

                                                                                                               Page    8            
  Active Usings: ASSIGN6+X'1000',R11  ASSIGN6,R12                                                                                   

  Loc  Object Code    Addr1 Addr2  Stmt   Source Statement                                  HLASM R6.0  2022/11/19 00.17            

000458 4740 C4D6            004D6   491          BL    NOHDRS2                 TOO EARLY TO PRINT HEADERS                           
                                    492 *                                                                                           
00045C FA10 C70A C5F7 0070A 005F7   493          AP    PPAGECTR(2),=PL1'1'     ADD 1 TO PAGE COUNTER                                
000462 D203 CA1F C5D8 00A1F 005D8   494          MVC   OPAGECTR(4),=X'40202120'  MOVE IN EDIT PATTERN                               
000468 DE03 CA1F C70A 00A1F 0070A   495          ED    OPAGECTR(4),PPAGECTR    EDIT IN PAGE COUNTER                                 
                                    496 *                                                                                           
00046E 4110 B020            01020   497          PUT   RPTDCB                  WRITE PAGE HEADER 1                                  
00047A D284 1000 C99E 00000 0099E   505          MVC   0(133,1),HEADER1                                                             
                                    506 *                                                                                           
000480 D21C CA56 C632 00A56 00632   507          MVC   OSUBTTL(29),=C'    BROKER LARGE SALES REPORT'                                
000486 D20C CA73 C64F 00A73 0064F   508          MVC   OSUBTTL+29(13),=13C' '                                                       
00048C 4110 B020            01020   509          PUT   RPTDCB                                                                       
000498 D284 1000 CA24 00000 00A24   517          MVC   0(133,1),HEADER2                                                             
                                    518 *                                                                                           
00049E 4110 B020            01020   519          PUT   RPTDCB                  WRITE PAGE HEADER 3                                  
0004AA D284 1000 CAA9 00000 00AA9   527          MVC   0(133,1),HEADER3                                                             
                                    528 *                                                                                           
0004B0 4110 B020            01020   529          PUT   RPTDCB                  WRITE COLUMN HEADERS                                 
0004BC D284 1000 CD92 00000 00D92   537          MVC   0(133,1),HSCOLHDR                                                            
                                    538 *                                                                                           
0004C2 4110 B020            01020   539          PUT   RPTDCB                  WRITE COLUMN HYPHENS                                 
0004CE D284 1000 CE17 00000 00E17   547          MVC   0(133,1),HSHYPH                                                              
                                    548 *                                                                                           
0004D4 1B22                         549          SR    2,2                     CLEAR LINE COUNTER                                   
                                    550 *                                                                                           
0004D6 4110 B020            01020   551 NOHDRS2  PUT   RPTDCB                  WRITE THE OHSREC LINE                                
0004E2 D284 1000 C80C 00000 0080C   559          MVC   0(133,1),OHSREC         COPY LINE TO OUTPUT                                  
0004E8 4120 2001            00001   560          LA    2,1(,2)                 ADD 1 TO LINE COUNTER                                
                                    561 *                                                                                           
0004EC 4110 B080            01080   562          GET   HSDCB,HSREC                                                                  
                                    571 *                                                                                           
0004FC 47F0 C434            00434   572          B     LOOP2                                                                        
                                    573 *                                                                                           
000500 FA10 C70A C5F7 0070A 005F7   574 ENDLOOP2 AP    PPAGECTR(2),=PL1'1'                                                          
000506 D203 CA1F C5D8 00A1F 005D8   575          MVC   OPAGECTR(4),=X'40202120'                                                     
00050C DE03 CA1F C70A 00A1F 0070A   576          ED    OPAGECTR(4),PPAGECTR                                                         
                                    577 *                                                                                           
000512 4110 B020            01020   578          PUT   RPTDCB                                                                       
00051E D284 1000 C99E 00000 0099E   586          MVC   0(133,1),HEADER1                                                             
                                    587 *                                                                                           
000524 D220 CA56 C65C 00A56 0065C   588          MVC   OSUBTTL(33),=C' BROKER LARGE SALES REPORT TOTALS'                            
00052A D208 CA77 C67D 00A77 0067D   589          MVC   OSUBTTL+33(9),=9C' '                                                         
000530 4110 B020            01020   590          PUT   RPTDCB                                                                       
00053C D284 1000 CA24 00000 00A24   598          MVC   0(133,1),HEADER2                                                             
                                    599 *                                                                                           
000542 4110 B020            01020   600          PUT   RPTDCB                                                                       
00054E D284 1000 CAA9 00000 00AA9   608          MVC   0(133,1),HEADER3                                                             
                                    609 *                                                                                           
000554 4110 B020            01020   610          PUT   RPTDCB                                                                       
000560 D284 1000 CE9C 00000 00E9C   618          MVC   0(133,1),HSTCLHDR                                                            
                                    619 *                                                                                           
000566 4110 B020            01020   620          PUT   RPTDCB                                                                       
000572 D284 1000 CF21 00000 00F21   628          MVC   0(133,1),HSTHYPH                                                             
                                    629 *                                                                                           
000578 DE03 C951 C708 00951 00708   630          ED    OHSCTR(4),RECCTR        EDIT REC COUNTER INTO TOTALS                         

                                                                                                               Page    9            
  Active Usings: ASSIGN6+X'1000',R11  ASSIGN6,R12                                                                                   

  Loc  Object Code    Addr1 Addr2  Stmt   Source Statement                                  HLASM R6.0  2022/11/19 00.17            

                                    631 *                                                                                           
00057E DE16 C95F C75C 0095F 0075C   632          ED    OHSTSHRS(23),PHSTSHRS                                                        
                                    633 *                                                                                           
000584 4110 B020            01020   634          PUT   RPTDCB                  WRITE THE TOTALS LINE                                
000590 D284 1000 C916 00000 00916   642          MVC   0(133,1),HSTOTALS       COPY TOTALS TO OUTPUT                                
                                    643 *                                                                                           
                                    644 *                                                                                           
000596 0700                         645 ENDPGM   CLOSE (HSDCB,,RPTDCB)         CLOSE THE TWO DCBs                                   
                                    654 *                                                                                           
0005A6 1BFF                         655          SR    15,15                   SET RC TO 0                                          
0005A8 58D0 D004            00004   656          L     13,4(,13)               R13 -> CALLER'S SAVE AREA                            
0005AC 58E0 D00C            0000C   657          L     14,12(,13)              RESTORE R14                                          
0005B0 980C D014            00014   658          LM    0,12,20(13)             RESTORE R0 THROUGH R12                               
                                    659 *                                                                                           
0005B4 07FE                         660          BR    14                      RETURN TO CALLER                                     
                                    661 *                                                                                           
0005B8                              662          LTORG                         LTORG TO ORGANIZE LITERALS                           
0005B8 000000500000000C             663                =PL8'50000.0000'                                                             
0005C0 4020206B2020206B             664                =X'4020206B2020206B2020206B2021204B20202020'                                 
0005D4 00000012                     665                =F'18'                                                                       
0005D8 40202120                     666                =X'40202120'                                                                 
0005DC 4020212020612020             667                =X'40202120206120206120202020'                                               
0005E9 402120207A2020               668                =X'402120207A2020'                                                           
0005F0 402021204B2020               669                =X'402021204B2020'                                                           
0005F7 1C                           670                =PL1'1'                                                                      
0005F8 402020206B202020             671                =X'402020206B2020206B2021204B2020'                                           
000607 C2D9D6D2C5D940E2             672                =C'BROKER SALES AND COMMISSIONS '                                            
000624 D9C5D7D6D9E340E3             673                =C'REPORT TOTALS'                                                            
000631 0C                           674                =PL1'0'                                                                      
000632 40404040C2D9D6D2             675                =C'    BROKER LARGE SALES REPORT'                                            
00064F 4040404040404040             676                =13C' '                                                                      
00065C 40C2D9D6D2C5D940             677                =C' BROKER LARGE SALES REPORT TOTALS'                                        
00067D 4040404040404040             678                =9C' '                                                                       
                                    679 *                                                                                           
000686                00686 006A0   680          ORG   ASSIGN6+((*-ASSIGN6+31)/32)*32                                               
0006A0 C8C5D9C540C9E240             681          DC    C'HERE IS THE STORAGE FOR ASSIGN6 '                                          
                                    682 *                                                                                           
0006C0 0000000000000000             683 REGS     DC    18F'0'                  MAINREGS FOR STANDARD LINKAGE                        
                                    684 *                                                                                           
000708 000C                         685 RECCTR   DC    PL2'0'                  PACKED RECORD COUNTER FIELD                          
00070A 000C                         686 PPAGECTR DC    PL2'0'                  PACKED PAGE COUNTER FIELD                            
                                    687 *                                                                                           
00070C 0000000000000000             688 PSHRCALC DC    PL11'0'                 TEMPORARY SHARE CALC                                 
000717 0000000000000000             689 PCOMCALC DC    PL11'0'                 TEMPORARY COMMISSION CALC                            
                                    690 *                                                                                           
000722 00000C                       691 PSHRPRC  DC    PL3'0'                  PACKED SHARE PRICE                                   
000725 0000000C                     692 PCOMPCT1 DC    PL4'0'                  PACKED COMM PERCENT 1                                
000729 0000000C                     693 PCOMPCT2 DC    PL4'0'                  PACKED COMM PERCENT 2                                
00072D 0000000C                     694 PCOMPCT3 DC    PL4'0'                  PACKED COMM PERCENT 3                                
                                    695 *                                                                                           
000731 00000000000C                 696 PDEPAMT  DC    PL6'0'                  PACKED DEPOSIT AMOUNT                                
000737 000000000000000C             697 PSHRAMT  DC    PL8'0'                  PACKED SHARE AMOUNT (FOR ADDING)                     
00073F 00000000000C                 698 PCOMAMT  DC    PL6'0'                                                                       
                                    699 *                                                                                           
000745 0000000000000C               700 PTDEPAMT DC    PL7'0'                                                                       

                                                                                                               Page   10            
  Active Usings: ASSIGN6+X'1000',R11  ASSIGN6,R12                                                                                   

  Loc  Object Code    Addr1 Addr2  Stmt   Source Statement                                  HLASM R6.0  2022/11/19 00.17            

00074C 0000000000000000             701 PTSHRAMT DC    PL9'0'                                                                       
000755 0000000000000C               702 PTCOMAMT DC    PL7'0'                                                                       
00075C 0000000000000000             703 PHSTSHRS DC    PL9'0'                                                                       
                                    704 *                                                                                           
000766                              705 HSREC    DS    0H                                                                           
000766                              706 HSBRKNME DS    CL25                                                                         
00077F                              707 HSSHRAMT DS    PL8                                                                          
                                    708 *                                                                                           
000787 F0                           709 DETAIL   DC    C'0'                    DETAIL CARRIAGE CONTROL                              
000788                              710 OBRNCNME DS    CL25                    BRANCH NAME FIELD                                    
0007A1 4040404040404040             711          DC    8C' '                   SPACES                                               
0007A9                              712 OBRKRNME DS    CL25                    BROKER NAME FIELD                                    
0007C2 4040404040404040             713          DC    8C' '                   SPACES                                               
0007CA                              714 ODEPAMT  DS    CL15                    DEPOSIT AMOUNT FIELD                                 
0007D9 40404040404040               715          DC    7C' '                   SPACES                                               
0007E0                              716 OSHRAMT  DS    CL20                    SHARE AMOUNT FIELD                                   
0007F4 4040404040404040             717          DC    9C' '                   SPACES                                               
0007FD                              718 OCOMAMT  DS    CL15                    COMMISSION AMOUNT FIELD                              
                                    719 *                                                                                           
00080C F0                           720 OHSREC   DC    C'0'                                                                         
00080D 4040404040404040             721          DC    37C' '                                                                       
000832                              722 OHBRKNME DS    CL25                                                                         
00084B 4040404040404040             723          DC    13C' '                                                                       
000858 4020206B2020206B             724 OHSHRAMT DC    X'4020206B2020206B2020206B2021204B20202020'                                  
00086C 4040404040404040             725          DC    37C' '                                                                       
                                    726 *                                                                                           
000891 F0                           727 TOTALS   DC    C'0'                    TOTALS CARRIAGE CONTROL                              
000892 4040404040404040             728          DC    50C' '                  SPACES                                               
0008C4 40202120                     729 ORECCTR  DC    X'40202120'             OUTPUT FOR RECORD COUNT                              
0008C8 4040404040404040             730          DC    9C' '                   SPACES                                               
0008D1 4020206B2020206B             731 OTDEPAMT DC    X'4020206B2020206B2020206B2021204B2020'                                      
0008E3 40404040                     732          DC    4C' '                   SPACES                                               
0008E7 40206B2020206B20             733 OTSHRAMT DC    X'40206B2020206B2020206B2020206B2021204B20202020'                            
0008FE 404040404040                 734          DC    6C' '                   SPACES                                               
000904 4020206B2020206B             735 OTCOMAMT DC    X'4020206B2020206B2020206B2021204B2020'                                      
                                    736 *                                                                                           
000916 F0                           737 HSTOTALS DC    C'0'                                                                         
000917 4040404040404040             738          DC    58C' '                                                                       
000951 40202120                     739 OHSCTR   DC    X'40202120'                                                                  
000955 4040404040404040             740          DC    10C' '                                                                       
00095F 40206B2020206B20             741 OHSTSHRS DC    X'40206B2020206B2020206B2020206B2021204B20202020'                            
000976 4040404040404040             742          DC    37C' '                                                                       
                                    743 *                                                                                           
00099B                              744 ICOMMFLG DS    ZL1                     STORES 1 BYTE FROM RECORD                            
                                    745 *                                                                                           
00099C                              746          DS    CL2                                                                          
00099E F1                           747 HEADER1  DC    C'1'                    CARRIAGE CONTROL                                     
00099F                              748 OHDRDTE  DS    CL10                    OUTPUT HEADER DATE                                   
0009A9 4040404040404040             749          DC    39C' '                                                                       
0009D0                              750 OFUNDNME DS    CL35                                                                         
0009F3 4040404040404040             751          DC    38C' '                                                                       
000A19 D7C1C7C57A40                 752          DC    C'PAGE: '                                                                    
000A1F                              753 OPAGECTR DS    CL3                                                                          
                                    754 *                                                                                           
000A22                              755          DS    CL2                                                                          

                                                                                                               Page   11            
  Active Usings: ASSIGN6+X'1000',R11  ASSIGN6,R12                                                                                   

  Loc  Object Code    Addr1 Addr2  Stmt   Source Statement                                  HLASM R6.0  2022/11/19 00.17            

000A24 40                           756 HEADER2  DC    C' '                    CARRIAGE CONTROL                                     
000A25                              757 OHDRTME  DS    CL6                                                                          
000A2B 4040404040404040             758          DC    43C' '                                                                       
000A56 C2D9D6D2C5D940E2             759 OSUBTTL  DC    C'BROKER SALES AND COMMISSION REPORT'                                        
000A78 4040404040404040             760          DC    49C' '                                                                       
                                    761 *                                                                                           
000AA9 F0                           762 HEADER3  DC    C'0'                                                                         
000AAA 4040404040404040             763          DC    55C' '                                                                       
000AE1 E2C8C1D9C540D7D9             764          DC    C'SHARE PRICE: '                                                             
000AEE                              765 OSHRPRC  DS    CL8                                                                          
000AF6 4040404040404040             766          DC    56C' '                                                                       
                                    767 *                                                                                           
000B2E                              768 RECORD   DS    CL80                                                                         
                                    769 *                                                                                           
000B7E F0                           770 COLHDR   DC    C'0'                                                                         
000B7F C2D9C1D5C3C840D5             771          DC    C'BRANCH NAME'                                                               
000B8A 4040404040404040             772          DC    22C' '                                                                       
000BA0 C2D9D6D2C5D940D5             773          DC    C'BROKER NAME'                                                               
000BAB 4040404040404040             774          DC    23C' '                                                                       
000BC2 C4C5D7D6E2C9E340             775          DC    C'DEPOSIT AMOUNT'                                                            
000BD0 4040404040404040             776          DC    15C' '                                                                       
000BDF E2C8C1D9C540C1D4             777          DC    C'SHARE AMOUNT'                                                              
000BEB 4040404040404040             778          DC    14C' '                                                                       
000BF9 C3D6D4D4C9E2E2C9             779          DC    C'COMMISSION'                                                                
                                    780 *                                                                                           
000C03 F0                           781 TCOLHDR  DC    C'0'                                                                         
000C04 4040404040404040             782          DC    39C' '                                                                       
000C2B D5E4D4C2C5D940D6             783          DC    C'NUMBER OF SALES'                                                           
000C3A 4040404040404040             784          DC    9C' '                                                                        
000C43 E3D6E3C1D340E2C1             785          DC    C'TOTAL SALES AMOUNT'                                                        
000C55 4040404040404040             786          DC    9C' '                                                                        
000C5E E3D6E3C1D340E2C8             787          DC    C'TOTAL SHARE AMOUNT'                                                        
000C70 4040404040404040             788          DC    8C' '                                                                        
000C78 E3D6E3C1D340C3D6             789          DC    C'TOTAL COMMISSION'                                                          
                                    790 *                                                                                           
000C88 40                           791 HYPHENS  DC    C' '                                                                         
000C89 6060606060606060             792          DC    20C'-'                                                                       
000C9D 4040404040404040             793          DC    13C' '                                                                       
000CAA 6060606060606060             794          DC    25C'-'                                                                       
000CC3 4040404040404040             795          DC    9C' '                                                                        
000CCC 6060606060606060             796          DC    14C'-'                                                                       
000CDA 4040404040404040             797          DC    9C' '                                                                        
000CE3 6060606060606060             798          DC    18C'-'                                                                       
000CF5 4040404040404040             799          DC    10C' '                                                                       
000CFF 6060606060606060             800          DC    14C'-'                                                                       
                                    801 *                                                                                           
000D0D 40                           802 TOTHYPH  DC    C' '                                                                         
000D0E 4040404040404040             803          DC    39C' '                                                                       
000D35 6060606060606060             804          DC    15C'-'                                                                       
000D44 4040404040404040             805          DC    9C' '                                                                        
000D4D 6060606060606060             806          DC    18C'-'                                                                       
000D5F 4040404040                   807          DC    5C' '                                                                        
000D64 6060606060606060             808          DC    22C'-'                                                                       
000D7A 404040404040                 809          DC    6C' '                                                                        
000D80 6060606060606060             810          DC    18C'-'                                                                       

                                                                                                               Page   12            
  Active Usings: ASSIGN6+X'1000',R11  ASSIGN6,R12                                                                                   

  Loc  Object Code    Addr1 Addr2  Stmt   Source Statement                                  HLASM R6.0  2022/11/19 00.17            

                                    811 *                                                                                           
000D92 F0                           812 HSCOLHDR DC    C'0'                                                                         
000D93 4040404040404040             813          DC    40C' '                                                                       
000DBB C8C9C7C840E2C1D3             814          DC    C'HIGH SALES BROKER NAME'                                                    
000DD1 4040404040404040             815          DC    10C' '                                                                       
000DDB C8C9C7C840E2C1D3             816          DC    C'HIGH SALES SHARE AMOUNT'                                                   
000DF2 4040404040404040             817          DC    37C' '                                                                       
                                    818 *                                                                                           
000E17 40                           819 HSHYPH   DC    C' '                                                                         
000E18 4040404040404040             820          DC    37C' '                                                                       
000E3D 6060606060606060             821          DC    25C'-'                                                                       
000E56 4040404040404040             822          DC    10C' '                                                                       
000E60 6060606060606060             823          DC    23C'-'                                                                       
000E77 4040404040404040             824          DC    37C' '                                                                       
                                    825 *                                                                                           
000E9C F0                           826 HSTCLHDR DC    C'0'                                                                         
000E9D 4040404040404040             827          DC    34C' '                                                                       
000EBF D5E4D4C2C5D940D6             828          DC    C'NUMBER OF HIGH SALES BROKERS'                                              
000EDB 40404040                     829          DC    4C' '                                                                        
000EDF E3D6E3C1D340C8C9             830          DC    C'TOTAL HIGH SALES SHARE AMOUNT'                                             
000EFC 4040404040404040             831          DC    37C' '                                                                       
                                    832 *                                                                                           
000F21 40                           833 HSTHYPH  DC    C' '                                                                         
000F22 4040404040404040             834          DC    34C' '                                                                       
000F44 6060606060606060             835          DC    28C'-'                                                                       
000F60 40404040                     836          DC    4C' '                                                                        
000F64 6060606060606060             837          DC    29C'-'                                                                       
000F81 4040404040404040             838          DC    37C' '                                                                       
                                    839 *                                                                                           
000FA8                              840 DATETIME DS    4F    USED BY THE TIME MACRO TO RETRIEVE DATE AND TIME                       
                                    841 *                                                                                           
                                    842 *  INPUT DCB                                                                                
                                    843 *                                                                                           
                                    844 SALEDCB  DCB   DDNAME=SALEFLE,                                         X                    
                                                       DEVD=DA,                                                X                    
                                                       DSORG=PS,                                               X                    
                                                       MACRF=GM,                                               X                    
                                                       RECFM=FB,                                               X                    
                                                       LRECL=80,                                               X                    
000FB8 0000000000000000                                EODAD=EOFRTN                                                                 
                                    886 *                                                                                           
                                    887 *  INPUT DCB'S EOF FLAG AND EOF ROUTINE                                                     
                                    888 *                                                                                           
001018 D5                           889 EOFFLAG  DC    C'N'                  EOFFLAG FOR INPUT FILE                                 
                                    890 *                                                                                           
001019 00                                                                                                                           
00101A 92E8 B018      01018         891 EOFRTN   MVI   EOFFLAG,C'Y'          SET EOF FLAG TO Y                                      
00101E 07FE                         892          BR    14                    BRANCH TO STMT FOLLOWING GET                           
                                    893 *                                                                                           
                                    894 *  OUTPUT DCB                                                                               
                                    895 *                                                                                           
                                    896 RPTDCB   DCB   DDNAME=RPTFLE,                                          X                    
                                                       DEVD=DA,                                                X                    
                                                       DSORG=PS,                                               X                    
                                                       MACRF=PL,                                               X                    

                                                                                                               Page   13            
  Active Usings: ASSIGN6+X'1000',R11  ASSIGN6,R12                                                                                   

  Loc  Object Code    Addr1 Addr2  Stmt   Source Statement                                  HLASM R6.0  2022/11/19 00.17            

                                                       RECFM=FBA,                                              X                    
                                                       LRECL=133,                                              X                    
001020 0000000000000000                                BLKSIZE=2660                                                                 
                                    938 *                                                                                           
                                    939 HSDCB    DCB   DDNAME=HSFLE,                                           X                    
                                                       DEVD=DA,                                                X                    
                                                       DSORG=PS,                                               X                    
                                                       MACRF=(GM,PM),                                          X                    
                                                       RECFM=FB,                                               X                    
                                                       LRECL=33,                                               X                    
                                                       BLKSIZE=330,                                            X                    
001080 0000000000000000                                EODAD=EOFRTN2                                                                
                                    981 *                                                                                           
                                    982 *  INPUT DCB'S EOF FLAG AND EOF ROUTINE                                                     
                                    983 *                                                                                           
0010E0 D5                           984 EOFFLAG2 DC    C'N'                  EOFFLAG FOR INPUT FILE                                 
                                    985 *                                                                                           
0010E1 00                                                                                                                           
0010E2 92E8 B0E0      010E0         986 EOFRTN2  MVI   EOFFLAG2,C'Y'         SET EOF FLAG TO Y                                      
0010E6 07FE                         987          BR    14                    BRANCH TO STMT FOLLOWING GET                           
                                    988 *                                                                                           
000000                              989          END   ASSIGN6                                                                      

                                                 Relocation Dictionary                                         Page   14            


   Pos.Id   Rel.Id   Address  Type    Length  Action                                        HLASM R6.0  2022/11/19 00.17            

  00000001 00000001 00000089   A         3       +                                                                                  
  00000001 00000001 000000A9   A         3       +                                                                                  
  00000001 00000001 000000C9   A         3       +                                                                                  
  00000001 00000001 000003E9   A         3       +                                                                                  
  00000001 00000001 000003ED   A         3       +                                                                                  
  00000001 00000001 000003F9   A         3       +                                                                                  
  00000001 00000001 0000059D   A         3       +                                                                                  
  00000001 00000001 000005A1   A         3       +                                                                                  
  00000001 00000001 00000FD9   A         3       +                                                                                  
  00000001 00000001 000010A1   A         3       +                                                                                  

                               Ordinary Symbol and Literal Cross Reference                                     Page   15            


Symbol   Length   Value     Id    R Type Asm  Program   Defn References                     HLASM R6.0  2022/11/19 00.17            

$BRKRNME     25 00000014 FFFFFFFE     C  C                31  191   215                                                             
$BRNCNME     20 00000000 FFFFFFFE     C  C                30  190                                                                   
$COMMFLG      1 0000003B FFFFFFFE     Z  Z                34  228                                                                   
$COMPCT1      6 00000028 FFFFFFFF     Z  Z                25  160                                                                   
$COMPCT2      6 0000002E FFFFFFFF     Z  Z                26  161                                                                   
$COMPCT3      6 00000034 FFFFFFFF     Z  Z                27  162                                                                   
$DEPAMT      10 0000002D FFFFFFFE     Z  Z                32  192                                                                   
$FUNDNME     35 00000005 FFFFFFFF     C  C                24  159                                                                   
$FUNDREC      1 00000000 FFFFFFFF     J                   22  156U                                                                  
$SALEREC      1 00000000 FFFFFFFE     J                   29  173U                                                                  
$SHRPRC       5 00000000 FFFFFFFF     Z  Z                23  158                                                                   
ASSIGN6       1 00000000 00000001     J                   36   40U   48U  680   680   989                                           
CHECKCOM      6 000001DA 00000001     I                  228  213B                                                                  
COLHDR        1 00000B7E 00000001     C  C               770  314                                                                   
COMM1         6 000001F8 00000001     I                  236  230B                                                                  
COMM2         6 0000022A 00000001     I                  247  232B                                                                  
COMM3         6 0000025C 00000001     I                  258  234B                                                                  
CONTINUE      4 0000028E 00000001     I                  269  245B  256B  267B                                                      
DATETIME      4 00000FA8 00000001     F  F               840   71    76    80                                                       
DETAIL        1 00000787 00000001     C  C               709  336                                                                   
ENDLOOP1      6 0000032E 00000001     I                  353  186B                                                                  
ENDLOOP2      6 00000500 00000001     I                  574  480B                                                                  
ENDPGM        4 00000598 00000001     I                  648  153B                                                                  
EOFFLAG       1 00001018 00000001     C  C               889  152   185   891M                                                      
EOFFLAG2      1 000010E0 00000001     C  C               984  479   986M                                                            
EOFRTN        4 0000101A 00000001     I                  891  861                                                                   
EOFRTN2       4 000010E2 00000001     I                  986  956                                                                   
HEADER1       1 0000099E 00000001     C  C               747   77M  284   365   505   586                                           
HEADER2       1 00000A24 00000001     C  C               756  294   377   517   598                                                 
HEADER3       1 00000AA9 00000001     C  C               762  304   387   527   608                                                 
HSBRKNME     25 00000766 00000001     C  C               706  215M  484                                                             
HSCOLHDR      1 00000D92 00000001     C  C               812  537                                                                   
HSDCB         4 00001080 00000001     F  F               944  127   222   440   448   473   566   650                               
HSHYPH        1 00000E17 00000001     C  C               819  547                                                                   
HSREC         2 00000766 00000001     H  H               705  223   474   567                                                       
HSSHRAMT      8 0000077F 00000001     P  P               707  216M  486   488                                                       
HSTCLHDR      1 00000E9C 00000001     C  C               826  618                                                                   
HSTHYPH       1 00000F21 00000001     C  C               833  628                                                                   
HSTOTALS      1 00000916 00000001     C  C               737  642                                                                   
HYPHENS       1 00000C88 00000001     C  C               791  324                                                                   
ICOMMFLG      1 0000099B 00000001     Z  Z               744  228M  229   231   233                                                 
IHB0001D      4 00000028 00000001     F  F                57   55                                                                   
IHB0001W      2 00000044 00000001     H  H                64   56B                                                                  
LOOP1         4 00000148 00000001     I                  185  349B                                                                  
LOOP2         4 00000434 00000001     I                  479  572B                                                                  
NOHDRS        4 00000304 00000001     I                  332  270B                                                                  
NOHDRS2       4 000004D6 00000001     I                  555  491B                                                                  
OBRKRNME     25 000007A9 00000001     C  C               712  191M                                                                  
OBRNCNME     25 00000788 00000001     C  C               710  190M                                                                  
OCOMAMT      15 000007FD 00000001     C  C               718  239   240M  241M  250   251M  252M  261   262M  263M                  
ODEPAMT      15 000007CA 00000001     C  C               714  194   195M  196M                                                      
OFUNDNME     35 000009D0 00000001     C  C               750  159M                                                                  
OHBRKNME     25 00000832 00000001     C  C               722  484M                                                                  
OHDRDTE      10 0000099F 00000001     C  C               748   75M   76M                                                            
OHDRTME       6 00000A25 00000001     C  C               757   79M   80M                                                            

                               Ordinary Symbol and Literal Cross Reference                                     Page   16            


Symbol   Length   Value     Id    R Type Asm  Program   Defn References                     HLASM R6.0  2022/11/19 00.17            

OHSCTR        4 00000951 00000001     X  X               739  630M                                                                  
OHSHRAMT     20 00000858 00000001     X  X               724  486M                                                                  
OHSREC        1 0000080C 00000001     C  C               720  559                                                                   
OHSTSHRS     23 0000095F 00000001     X  X               741  632M                                                                  
OPAGECTR      3 00000A1F 00000001     C  C               753  273M  274M  354M  355M  494M  495M  575M  576M                        
OPENOK1       4 000000A4 00000001     I                  105   90B                                                                  
OPENOK2       4 000000C4 00000001     I                  125  110B                                                                  
OPENOK3       4 000000E4 00000001     I                  146  130B                                                                  
OPENOK4       6 00000414 00000001     I                  463  451B                                                                  
ORECCTR       4 000008C4 00000001     X  X               729  409M                                                                  
OSHRAMT      20 000007E0 00000001     C  C               716  207M  208M                                                            
OSHRPRC       8 00000AEE 00000001     C  C               765  163   164M  165M                                                      
OSUBTTL      34 00000A56 00000001     C  C               759  367M  368M  507M  508M  588M  589M                                    
OTCOMAMT     18 00000904 00000001     X  X               735  418   419M                                                            
OTDEPAMT     18 000008D1 00000001     X  X               731  411   412M                                                            
OTSHRAMT     23 000008E7 00000001     X  X               733  416M                                                                  
PCOMCALC     11 00000717 00000001     P  P               689  236M  237M  238M  241   244   247M  248M  249M  252   255             
                                                              258M  259M  260M  263   266                                           
PCOMPCT1      4 00000725 00000001     P  P               692  160M  237                                                             
PCOMPCT2      4 00000729 00000001     P  P               693  161M  248                                                             
PCOMPCT3      4 0000072D 00000001     P  P               694  162M  259                                                             
PDEPAMT       6 00000731 00000001     P  P               696  192M  196   200   202   236   247   258                               
PHSTSHRS      9 0000075C 00000001     P  P               703  488M  632                                                             
PPAGECTR      2 0000070A 00000001     P  P               686  272M  274   353M  355   467M  493M  495   574M  576                   
PSHRCALC     11 0000070C 00000001     P  P               688  202M  203M  204M  205M  206M  208   210   212   216                   
PSHRPRC       3 00000722 00000001     P  P               691  158M  165   204                                                       
PTCOMAMT      7 00000755 00000001     P  P               702  244M  255M  266M  419                                                 
PTDEPAMT      7 00000745 00000001     P  P               700  200M  412                                                             
PTSHRAMT      9 0000074C 00000001     P  P               701  210M  416                                                             
RECCTR        2 00000708 00000001     P  P               685  188M  409   463M  482M  630                                           
RECORD       80 00000B2E 00000001     C  C               768  147   155   180   344                                                 
REGS          4 000006C0 00000001     F  F               683   41                                                                   
RPTDCB        4 00001020 00000001     F  F               901  107   280   290   300   310   320   332   361   373   383             
                                                              393   403   427   501   513   523   533   543   555   582             
                                                              594   604   614   624   638   652                                     
SALEDCB       4 00000FB8 00000001     F  F               849   87   146   179   343   438                                           
TCOLHDR       1 00000C03 00000001     C  C               781  397                                                                   
TOTALS        1 00000891 00000001     C  C               727  431                                                                   
TOTHYPH       1 00000D0D 00000001     C  C               802  407                                                                   
=C'    BROKER LARGE SALES REPORT'                                                                                                   
             29 00000632 00000001     C                  675  507                                                                   
=C' BROKER LARGE SALES REPORT TOTALS'                                                                                               
             33 0000065C 00000001     C                  677  588                                                                   
=C'BROKER SALES AND COMMISSIONS '                                                                                                   
             29 00000607 00000001     C                  672  367                                                                   
=C'REPORT TOTALS'                                                                                                                   
             13 00000624 00000001     C                  673  368                                                                   
=F'18'        4 000005D4 00000001     F                  665  269   490                                                             
=PL1'0'       1 00000631 00000001     P                  674  463                                                                   
=PL1'1'       1 000005F7 00000001     P                  670  188   272   353   467   482   493   574                               
=PL8'50000.0000'                                                                                                                    
              8 000005B8 00000001     P                  663  212                                                                   
=X'402020206B2020206B2021204B2020'                                                                                                  
             15 000005F8 00000001     X                  671  195   240   251   262                                                 
=X'4020206B2020206B2020206B2021204B20202020'                                                                                        

                               Ordinary Symbol and Literal Cross Reference                                     Page   17            


Symbol   Length   Value     Id    R Type Asm  Program   Defn References                     HLASM R6.0  2022/11/19 00.17            

             20 000005C0 00000001     X                  664  207                                                                   
=X'40202120'                                                                                                                        
              4 000005D8 00000001     X                  666  273   354   494   575                                                 
=X'40202120206120206120202020'                                                                                                      
             13 000005DC 00000001     X                  667   75                                                                   
=X'402021204B2020'                                                                                                                  
              7 000005F0 00000001     X                  669  164                                                                   
=X'402120207A2020'                                                                                                                  
              7 000005E9 00000001     X                  668   79                                                                   
=13C' '       1 0000064F 00000001     C                  676  508                                                                   
=9C' '        1 0000067D 00000001     C                  678  589                                                                   

                                  Unreferenced Symbols Defined in CSECTs                                       Page   18            


  Defn  Symbol                                                                              HLASM R6.0  2022/11/19 00.17            

   698  PCOMAMT                                                                                                                     
   697  PSHRAMT                                                                                                                     

                                          Macro and Copy Code Source Summary                                   Page   19            


 Con Source                                        Volume    Members                        HLASM R6.0  2022/11/19 00.17            

  L1 SYS1.MACLIB                                   VTMVSC    ABEND    CLOSE    DCB      GET      IHBINNRA IHBINNRR                  
                                                             IHB01    OPEN     PUT      SYSSTATE TIME                               

                                                Dsect Cross Reference                                          Page   20            


Dsect     Length      Id       Defn                                                         HLASM R6.0  2022/11/19 00.17            

$FUNDREC 0000003A  FFFFFFFF      22                                                                                                 
$SALEREC 0000003C  FFFFFFFE      29                                                                                                 

                                                      Using Map                                                Page   21            


                                                                                            HLASM R6.0  2022/11/19 00.17            
  Stmt  -----Location----- Action ----------------Using----------------- Reg Max     Last Label and Using Text                      
          Count      Id           Type          Value    Range     Id        Disp    Stmt                                           

    40  00000006  00000001 USING  ORDINARY    00000000 00001000 00000001  12 00FB8    648 ASSIGN6,12                                
    48  0000001C  00000001 USING  ORDINARY    00001000 00001000 00000001  11 000E0    986 ASSIGN6+4096,11                           
   156  00000100  00000001 USING  ORDINARY    00000000 00001000 FFFFFFFF   3 00034    162 $FUNDREC,3                                
   169  00000134  00000001 DROP                                            3              3                                         
   173  00000138  00000001 USING  ORDINARY    00000000 00001000 FFFFFFFE   3 0003B    228 $SALEREC,3                                
   351  0000032E  00000001 DROP                                            3              3                                         

                                   General Purpose Register Cross Reference                                    Page   22            


 Register  References (M=modified, B=branch, U=USING, D=DROP, N=index)                      HLASM R6.0  2022/11/19 00.17            

    0(0)      38    97M   98M   99   117M  118M  119   137M  138M  139   147M  180M  223M  344M  458M  459M  460   474M             
             567M  658M                                                                                                             
    1(1)      38    54M   55M   65    66    72    85M   96M   99M  105M  116M  119M  125M  136M  139M  146M  149   163M             
             165M  166M  167   179M  182   194M  196M  197M  198   222M  225   239M  241M  242M  243   250M  252M  253M             
             254   261M  263M  264M  265   280M  282   284   290M  292   294   300M  302   304   310M  312   314   320M             
             322   324   332M  334   336   343M  346   361M  363   365   373M  375   377   383M  385   387   393M  395              
             397   403M  405   407   411M  412M  413M  414   418M  419M  420M  421   427M  429   431   436M  446M  457M             
             460M  473M  476   501M  503   505   513M  515   517   523M  525   527   533M  535   537   543M  545   547              
             555M  557   559   566M  569   582M  584   586   594M  596   598   604M  606   608   614M  616   618   624M             
             626   628   638M  640   642   648M  658M                                                                               
    2(2)      38   171M  269   326M  326   337M  337   465M  490   549M  549   560M  560   658M                                     
    3(3)      38    70M  155M  156U  169D  173U  351D  658M                                                                         
    4(4)      38    70M  658M                                                                                                       
    5(5)      38   658M                                                                                                             
    6(6)      38   658M                                                                                                             
    7(7)      38   658M                                                                                                             
    8(8)      38   658M                                                                                                             
    9(9)      38   658M                                                                                                             
   10(A)      38   658M                                                                                                             
   11(B)      38    46M   47M   47    48U  658M                                                                                     
   12(C)      38    39M   40U   46   658M                                                                                           
   13(D)      38    42    44M  656M  656   657   658                                                                                
   14(E)      38    41M   42    43    43    44    67M   68M   68N   69M   69N   70    70M   71M   72   150M  183M  226M             
             283M  293M  303M  313M  323M  335M  347M  364M  376M  386M  396M  406M  430M  477M  504M  516M  526M  536M             
             546M  558M  570M  585M  597M  607M  617M  627M  641M  657M  660B  892B  987B                                           
   15(F)      38    39    89M   89   109M  109   129M  129   148M  148   149M  150B  181M  181   182M  183B  224M  224              
             225M  226B  281M  281   282M  283B  291M  291   292M  293B  301M  301   302M  303B  311M  311   312M  313B             
             321M  321   322M  323B  333M  333   334M  335B  345M  345   346M  347B  362M  362   363M  364B  374M  374              
             375M  376B  384M  384   385M  386B  394M  394   395M  396B  404M  404   405M  406B  428M  428   429M  430B             
             450M  450   475M  475   476M  477B  502M  502   503M  504B  514M  514   515M  516B  524M  524   525M  526B             
             534M  534   535M  536B  544M  544   545M  546B  556M  556   557M  558B  568M  568   569M  570B  583M  583              
             584M  585B  595M  595   596M  597B  605M  605   606M  607B  615M  615   616M  617B  625M  625   626M  627B             
             639M  639   640M  641B  655M  655                                                                                      

                                  Diagnostic Cross Reference and Assembler Summary                             Page   23            


                                                                                            HLASM R6.0  2022/11/19 00.17            

     No Statements Flagged in this Assembly                                                                                         
HIGH LEVEL ASSEMBLER, 5696-234, RELEASE 6.0, PTF UI68060                                                                            

SYSTEM: z/OS 02.04.00              JOBNAME: KC03E7DA    STEPNAME: JSTEP01    PROCSTEP: (NOPROC)                                     

Unicode Module:   ASMA047C   From Page     1148   To Page    17584           ECECP: International 1                                 
Data Sets Allocated for this Assembly                                                                                               
 Con DDname   Data Set Name                                Volume  Member                                                           
  P1 SYSIN    KC03E7D.KC03E7DA.JOB08864.D0000101.?                                                                                  
  L1 SYSLIB   SYS1.MACLIB                                  VTMVSC                                                                   
     SYSLIN   SYS22323.T001721.RA000.KC03E7DA.OBJMOD.H01   TEMP00                                                                   
     SYSPRINT KC03E7D.KC03E7DA.JOB08864.D0000102.?                                                                                  
                                                                                                                                    
  26744K allocated to Buffer Pool       Storage required     624K                                                                   
    554 Primary Input Records Read         4269 Library Records Read                  0 Work File Reads                             
      0 ASMAOPT Records Read                878 Primary Print Records Written         0 Work File Writes                            
     84 Object Records Written                0 ADATA Records Written                                                               

Assembly Start Time: 00.17.22 Stop Time: 00.17.22 Processor Time: 00.00.00.0074                                                     
Return Code 000                                                                                                                     
!! END OF JES SPOOL FILE !!

z/OS V2 R4 BINDER     00:17:21 SATURDAY NOVEMBER 19, 2022                                                               
BATCH EMULATOR  JOB(KC03E7DA) STEP(JSTEP02 ) PGM= IEWBLINK                                                              
                                                                                                                        
                                                                                                                        
                                                                                                                        
                                *** O P E R A T I O N   S U M M A R Y   R E P O R T ***                                 
                                                                                                                        

PROCESSING OPTIONS:                                                                                                     
                                                                                                                        
   ALIASES             NO                                                                                               
   ALIGN2              NO                                                                                               
   AMODE               UNSPECIFIED                                                                                      
   CALL                YES                                                                                              
   CASE                UPPER                                                                                            
   COMPAT              UNSPECIFIED                                                                                      
   COMPRESS            AUTO                                                                                             
   DCBS                NO                                                                                               
   DYNAM               NO                                                                                               
   EXTATTR             UNSPECIFIED                                                                                      
   EXITS:              NONE                                                                                             
   FILL                NONE                                                                                             
   GID                 UNSPECIFIED                                                                                      
   HOBSET              NO                                                                                               
   INFO                NO                                                                                               
   LET                 04                                                                                               
   LINECT              060                                                                                              
   LIST                SUMMARY                                                                                          
   LISTPRIV            NO                                                                                               
   LONGPARM            NO                                                                                               
   MAP                 NO                                                                                               
   MAXBLK              032760                                                                                           
   MODMAP              NO                                                                                               
   MSGLEVEL            00                                                                                               
   OVLY                NO                                                                                               
   PRINT               YES                                                                                              
   RES                 NO                                                                                               
   REUSABILITY         UNSPECIFIED                                                                                      
   RMODE               UNSPECIFIED                                                                                      
   RMODEX              NO                                                                                               
   SIGN                NO                                                                                               
   STORENX             NOREPLACE                                                                                        
   STRIPCL             NO                                                                                               
   STRIPSEC            NO                                                                                               
   SYMTRACE                                                                                                             
   TERM                NO                                                                                               
   TRAP                ON                                                                                               
   UID                 UNSPECIFIED                                                                                      
   UPCASE              NO                                                                                               
   WKSPACE             000000K,000000K                                                                                  
   XCAL                NO                                                                                               
   XREF                NO                                                                                               
   ***END OF OPTIONS***                                                                                                 
                                                                                                                        
                                                                                                                        
                                                                                                                        
                                                                                                                        

SAVE OPERATION SUMMARY:                                                                                                 
                                                                                                                        
   MEMBER NAME         ASSIGN6                                                                                          
   LOAD LIBRARY        KC03E7D.CSCI465.LOADLIB                                                                          
   PROGRAM TYPE        PROGRAM OBJECT(FORMAT 2)                                                                         
   VOLUME SERIAL       KCTR34                                                                                           
   DISPOSITION         REPLACED                                                                                         
   TIME OF SAVE        00.17.22  NOV 19, 2022                                                                           
                                                                                                                        
                                                                                                                        

SAVE MODULE ATTRIBUTES:                                                                                                 
                                                                                                                        
   AC                  000                                                                                              
   AMODE                24                                                                                              
   COMPRESSION         NONE                                                                                             
   DC                  NO                                                                                               
   EDITABLE            YES                                                                                              
   EXCEEDS 16MB        NO                                                                                               
   EXECUTABLE          YES                                                                                              
   LONGPARM            NO                                                                                               
   MIGRATABLE          YES                                                                                              
   OL                  NO                                                                                               
   OVLY                NO                                                                                               
   PACK,PRIME          NO,NO                                                                                            
   PAGE ALIGN          NO                                                                                               
   REFR                NO                                                                                               
   RENT                NO                                                                                               
   REUS                NO                                                                                               
   RMODE                24                                                                                              
   SCTR                NO                                                                                               
   SIGN                NO                                                                                               
   SSI                                                                                                                  
   SYM GENERATED       NO                                                                                               
   TEST                NO                                                                                               
   XPLINK              NO                                                                                               
   MODULE SIZE (HEX)   000010E8                                                                                         
   DASD SIZE (HEX)     00002000                                                                                         
                                                                                                                        
                                                                                                                        

 ENTRY POINT AND ALIAS SUMMARY:                                                                                         
                                                                                                                        
 NAME:            ENTRY TYPE AMODE C_OFFSET CLASS NAME        STATUS                                                    
                                                                                                                        
 ASSIGN6           MAIN_EP      24 00000000 B_TEXT                                                                      
                                                                                                                        
                         *** E N D   O F   O P E R A T I O N   S U M M A R Y   R E P O R T ***                          
                                                                                                                        
                                                                                                                        
                                                                                                                        
                                                                                                                        

z/OS V2 R4 BINDER     00:17:21 SATURDAY NOVEMBER 19, 2022                                                               
BATCH EMULATOR  JOB(KC03E7DA) STEP(JSTEP02 ) PGM= IEWBLINK                                                              
IEW2008I 0F03 PROCESSING COMPLETED.  RETURN CODE =  0.                                                                  
                                                                                                                        
                                                                                                                        
                                                                                                                        

----------------------                                                                                                  
MESSAGE SUMMARY REPORT                                                                                                  
----------------------                                                                                                  
 TERMINAL MESSAGES      (SEVERITY = 16)                                                                                 
 NONE                                                                                                                   
                                                                                                                        
 SEVERE MESSAGES        (SEVERITY = 12)                                                                                 
 NONE                                                                                                                   
                                                                                                                        
 ERROR MESSAGES         (SEVERITY = 08)                                                                                 
 NONE                                                                                                                   
                                                                                                                        
 WARNING MESSAGES       (SEVERITY = 04)                                                                                 
 NONE                                                                                                                   
                                                                                                                        
 INFORMATIONAL MESSAGES (SEVERITY = 00)                                                                                 
 2008                                                                                                                   
                                                                                                                        
                                                                                                                        
 **** END OF MESSAGE SUMMARY REPORT ****                                                                                
                                                                                                                        
!! END OF JES SPOOL FILE !!

11/19/2022                                        WASHINGTON & LINCOLN INVESTMENTS                                        PAGE:    1
00:00                                            BROKER SALES AND COMMISSION REPORT                                                 

                                                       SHARE PRICE:   $9.35                                                         

BRANCH NAME                      BROKER NAME                       DEPOSIT AMOUNT               SHARE AMOUNT              COMMISSION
--------------------             -------------------------         --------------         ------------------          --------------

Athens, Greece                   George Schipodokas                     $1,124.71                   120.2900                   $0.91

Athens, Greece                   Boodra Makedonas                       $3,704.71                   396.2260                   $4.89

Athens, Greece                   Aristotle Onassis                     $14,173.13                 1,515.8430                  $11.48

Athens, Greece                   Maria Callas                          $15,401.52                 1,647.2210                  $12.48

Athens, Greece                   Kostas Dalaras                         $7,740.68                   827.8800                   $6.27

Athens, Greece                   Peter Bogdonas                         $2,334.72                   249.7030                   $3.08

Berlin, Germany                  Erich Kleiber                         $93,618.48                10,012.6720                  $75.83

Berlin, Germany                  Wilhelm Furtwaengler                 $716,614.94                76,643.3090                 $580.46

Berlin, Germany                  Adolph Dege                           $80,821.35                 8,643.9950                 $106.68

Berlin, Germany                  Johannes Klopp                       $400,870.20                42,873.8180                 $324.70

Berlin, Germany                  Eugen Jochum                       $9,999,999.99             1,069,518.7160               $5,200.00

Bonn, Germany                    Ludwig van Beethoven                   $4,061.21                   434.3540                   $5.36

Bonn, Germany                    Uwe Schmidt                          $207,430.39                22,185.0680                 $273.81

Bonn, Germany                    Helga Dernesch                           $841.52                    90.0020                   $1.11

Bonn, Germany                    Richard Strauss                      $310,814.02                33,242.1410                 $410.27

Chicago, U.S.                    Maurizio Damilano                  $4,000,081.02               427,816.1520               $2,080.04

Chicago, U.S.                    Chi Yen Weh                          $431,081.00                46,104.9200                 $349.18

Chicago, U.S.                    Steve Peplowski                      $241,001.21                25,775.5300                 $318.12

11/19/2022                                        WASHINGTON & LINCOLN INVESTMENTS                                        PAGE:    2
00:00                                            BROKER SALES AND COMMISSION REPORT                                                 

                                                       SHARE PRICE:   $9.35                                                         

BRANCH NAME                      BROKER NAME                       DEPOSIT AMOUNT               SHARE AMOUNT              COMMISSION
--------------------             -------------------------         --------------         ------------------          --------------

Chicago, U.S.                    Michael Smith                        $314,081.22                33,591.5740                 $254.41

Chicago, U.S.                    Charles Medley                       $310,481.23                33,206.5490                 $251.49

Chicago, U.S.                    Risa Rogan                           $310,841.24                33,245.0520                 $410.31

Chicago, U.S.                    Theodore Thomas                      $310,814.25                33,242.1660                 $251.76

Chicago, U.S.                    Frederick Stock                      $310,812.46                33,241.9740                 $251.76

Dublin, Ireland                  Billy O'Leary                        $310,821.42                33,242.9330                 $410.28

Dublin, Ireland                  Anna Owen                            $331,083.14                35,409.9610                 $437.03

Belfast, N. Ireland              Chet Manassas                         $51,223.41                 5,478.4400                  $67.61

Belfast, N. Ireland              Shelley Mann                         $330,000.52                35,294.1730                 $435.60

Belfast, N. Ireland              Philip Battenberg                      $3,111.60                   332.7910                   $4.11

Edinburgh, U.K.                  Billy Connolly                       $310,381.72                33,195.9060                 $409.70

Edinburgh, U.K.                  Omar Sharif                          $310,831.12                33,243.9700                 $410.30

Edinburgh, U.K.                  Julie Christie                       $310,813.12                33,242.0450                 $410.27

Edinburgh, U.K.                  James Oxfordshire                    $310,811.32                33,241.8520                 $410.27

Frankfurt, Germany               Johannes Dundor                      $460,641.05                49,266.4220                 $608.05

Frankfurt, Germany               Gretel Decker                        $180,764.08                19,333.0570                 $238.61

Frankfurt, Germany               Adam Dieffenbach                     $606,825.41                64,901.1130                 $491.53

Hong Kong, China                 Mao Zedong                           $608,627.12                65,093.8100                 $492.99

11/19/2022                                        WASHINGTON & LINCOLN INVESTMENTS                                        PAGE:    3
00:00                                            BROKER SALES AND COMMISSION REPORT                                                 

                                                       SHARE PRICE:   $9.35                                                         

BRANCH NAME                      BROKER NAME                       DEPOSIT AMOUNT               SHARE AMOUNT              COMMISSION
--------------------             -------------------------         --------------         ------------------          --------------

Hong Kong, China                 Zhou Enlai                           $608,266.12                65,055.2000                 $492.70

Hong Kong, China                 Zhau Ziyang                          $698,276.12                74,681.9380                 $921.72

Hong Kong, China                 Chiang Kai-shek                    $2,618,281.62               280,030.1200               $2,120.81

Hong Kong, China                 Gau-Yin Lau                           $60,829.12                 6,505.7880                  $80.29

Hong Kong, China                 Stephanie Buckingham                 $460,821.23                49,285.6930                 $373.27

Hong Kong, China                 Simon Draper                         $640,821.23                68,537.0300                 $845.88

London, U.K.                     Elizabeth Windsor                    $714,492.35                76,416.2940                 $943.13

London, U.K.                     Charles Windsor                      $217,916.20                23,306.5450                 $176.51

London, U.K.                     Andrew Windsor                       $661,102.24                70,706.1220                 $535.49

London, U.K.                     Michael Windsor                    $1,066,362.25               114,049.4390                 $863.75

London, U.K.                     Phillip Windsor                      $116,641.61                12,475.0390                 $153.97

London, U.K.                     William Windsor                      $221,661.72                23,707.1360                 $292.59

Los Angeles, U.S.                William Mills                        $111,966.78                11,975.0570                 $147.80

Los Angeles, U.S.                Catherine Monteiro                 $9,999,999.99             1,069,518.7160              $13,200.00

Los Angeles, U.S.                Jason Landau                         $500,000.78                53,476.0190                 $660.00

Los Angeles, U.S.                Trevor Pinnicle                      $150,000.00                16,042.7810                 $198.00

Kyiv, Ukraine                    Yvgeny Yevtushenko                   $135,191.78                14,459.0140                 $178.45

Kyiv, Ukraine                    Vladimir Ashkenazy                   $111,591.78                11,934.9500                  $90.39

11/19/2022                                        WASHINGTON & LINCOLN INVESTMENTS                                        PAGE:    4
00:00                                            BROKER SALES AND COMMISSION REPORT                                                 

                                                       SHARE PRICE:   $9.35                                                         

BRANCH NAME                      BROKER NAME                       DEPOSIT AMOUNT               SHARE AMOUNT              COMMISSION
--------------------             -------------------------         --------------         ------------------          --------------

Kyiv, Ukraine                    Serge Rachmaninov                     $11,951.78                 1,278.2650                  $15.78

Kyiv, Ukraine                    Leo Tolstoy                          $101,915.77                10,900.0820                 $134.53

Kyiv, Ukraine                    Fyodor Dostoevsky                     $11,333.63                 1,212.1530                   $9.18

Kyiv, Ukraine                    Dmitri Shostakovich                  $181,194.74                19,379.1170                 $146.77

New York, U.S.                   Gary Graffman                        $118,191.78                12,640.8320                  $95.74

New York, U.S.                   Andre Previn                         $232,821.78                24,900.7250                 $188.59

New York, U.S.                   Samuel Jefferson                      $99,989.99                10,694.1170                 $131.99

New York, U.S.                   John Adams                           $111,978.78                11,976.3400                  $58.23

New York, U.S.                   Cheryl Studer                        $301,491.78                32,245.1100                 $397.97

New York, U.S.                   Renee Fleming                        $331,121.78                35,414.0940                 $268.21

New York, U.S.                   Birgit Nilsson                        $33,194.48                 3,550.2120                  $43.82

New York, U.S.                   Christa Ludwig                       $113,391.74                12,127.4590                  $58.96

New York, U.S.                   James Conlon                          $99,939.99                10,688.7690                 $131.92

New York, U.S.                   Leonard Bernstein                    $111,913.78                11,969.3880                  $90.65

Paris, France                    Napoleon Bonaparte                 $1,007,309.30               107,733.6150               $1,329.65

Paris, France                    Claude Monet                       $3,001,251.86               320,989.5040               $3,961.65

Paris, France                    Olivier Messiaen                     $300,141.60                32,100.7060                 $156.07

Paris, France                    Claude Debussy                       $930,781.55                99,548.8290                 $484.01

11/19/2022                                        WASHINGTON & LINCOLN INVESTMENTS                                        PAGE:    5
00:00                                            BROKER SALES AND COMMISSION REPORT                                                 

                                                       SHARE PRICE:   $9.35                                                         

BRANCH NAME                      BROKER NAME                       DEPOSIT AMOUNT               SHARE AMOUNT              COMMISSION
--------------------             -------------------------         --------------         ------------------          --------------

Paris, France                    Maurice Ravel                      $1,003,012.22               107,274.0340                 $812.44

Paris, France                    Edith Piaf                           $263,340.33                28,164.7410                 $213.31

Paris, France                    Coco Chanel                          $226,130.54                24,185.0840                 $298.49

Sao Paulo, Brazil                Joao Castagneto                        $3,103.55                   331.9300                   $4.10

Sao Paulo, Brazil                Lasar Segall                           $6,105.37                   652.9810                   $3.17

Sao Paulo, Brazil                Tarsila do Amaral                    $300,010.58                32,086.6930                 $396.01

Sao Paulo, Brazil                Eliseu Visconti                       $32,230.54                 3,447.1170                  $26.11

Rome, Italy                      Julius Caesar                        $203,410.65                21,755.1500                 $268.50

Rome, Italy                      Franco Sinatra                         $4,310.55                   461.0210                   $5.69

Rome, Italy                      Giacomo Puccini                       $30,460.45                 3,257.8020                  $40.21

Rome, Italy                      Enrico Caruso                         $88,413.35                 9,455.9730                 $116.71

Rome, Italy                      Sofia Loren                          $900,415.25                96,301.0960               $1,188.55

Sydney, Australia                Milton Sheppard                       $90,460.65                 9,674.9360                  $73.27

Sydney, Australia                Shelley Boughton                       $9,810.58                 1,049.2600                   $7.95

Sydney, Australia                Joan Sutherland                        $2,910.55                   311.2890                   $3.84

Sydney, Australia                Barry Tuckwell                         $9,190.54                   982.9450                   $7.44

Sydney, Australia                Cayla Smithe                           $2,109.59                   225.6250                   $1.10

Sydney, Australia                Benjamin Britten                       $4,105.94                   439.1380                   $5.42

11/19/2022                                        WASHINGTON & LINCOLN INVESTMENTS                                        PAGE:    6
00:00                                            BROKER SALES AND COMMISSION REPORT                                                 

                                                       SHARE PRICE:   $9.35                                                         

BRANCH NAME                      BROKER NAME                       DEPOSIT AMOUNT               SHARE AMOUNT              COMMISSION
--------------------             -------------------------         --------------         ------------------          --------------

Sydney, Australia                Peter Pears                            $4,930.56                   527.3330                   $2.56

Sydney, Australia                Paul Gray                             $90,310.45                 9,658.8720                 $119.21

Vienna, Austria                  Herbert von Karajan                    $9,580.28                 1,024.6290                   $7.76

Vienna, Austria                  Franz Joseph Haydn                     $5,890.30                   629.9790                   $4.77

Vienna, Austria                  Josef Strauss                         $15,809.48                 1,690.8530                  $12.81

Vienna, Austria                  Karl Boehm                           $505,808.96                54,097.2150                 $409.71

Vienna, Austria                  Elisabeth Schwarzkopf                 $12,480.29                 1,334.7900                  $10.11

Vienna, Austria                  Franz Peter Schubert                   $9,831.05                 1,051.4490                   $7.96

Zurich, Switzerland              Earl Grey                            $400,058.01                42,786.9530                 $528.08

Zurich, Switzerland              Diana Kensington                      $87,057.55                 9,310.9680                 $114.92

Zurich, Switzerland              Axel Vondenberg                       $30,759.01                 3,289.7340                  $15.99

Zurich, Switzerland              Ute Schweitzer                       $147,058.00                15,728.1280                 $194.12

Zurich, Switzerland              Rene Jacobs                           $72,558.00                 7,760.2140                  $58.77

Zurich, Switzerland              Anton Bruckner                        $99,999.99                10,695.1860                  $52.00

11/19/2022                                        WASHINGTON & LINCOLN INVESTMENTS                                        PAGE:    7
00:00                                            BROKER SALES AND COMMISSIONS REPORT TOTALS                                         

                                                       SHARE PRICE:   $9.35                                                         

                                       NUMBER OF SALES         TOTAL SALES AMOUNT         TOTAL SHARE AMOUNT        TOTAL COMMISSION
                                       ---------------         ------------------     ----------------------      ------------------

                                                   104             $53,080,482.42             5,677,056.9440              $51,000.30

11/19/2022                                        WASHINGTON & LINCOLN INVESTMENTS                                        PAGE:    2
00:00                                                BROKER LARGE SALES REPORT                                                      

                                                       SHARE PRICE:   $9.35                                                         

                                        HIGH SALES BROKER NAME          HIGH SALES SHARE AMOUNT                                     
                                     -------------------------          -----------------------                                     

                                     Wilhelm Furtwaengler                           76,643.3090                                     

                                     Eugen Jochum                                                                                   

                                     Maurizio Damilano                                                                              

                                     Adam Dieffenbach                                                                               

                                     Mao Zedong                                                                                     

                                     Zhou Enlai                                                                                     

                                     Zhau Ziyang                                                                                    

                                     Chiang Kai-shek                                                                                

                                     Simon Draper                                                                                   

                                     Elizabeth Windsor                                                                              

                                     Andrew Windsor                                                                                 

                                     Michael Windsor                                                                                

                                     Catherine Monteiro                                                                             

                                     Jason Landau                                                                                   

                                     Napoleon Bonaparte                                                                             

                                     Claude Monet                                                                                   

                                     Claude Debussy                                                                                 

                                     Maurice Ravel                                                                                  

11/19/2022                                        WASHINGTON & LINCOLN INVESTMENTS                                        PAGE:    3
00:00                                                BROKER LARGE SALES REPORT                                                      

                                                       SHARE PRICE:   $9.35                                                         

                                        HIGH SALES BROKER NAME          HIGH SALES SHARE AMOUNT                                     
                                     -------------------------          -----------------------                                     

                                     Sofia Loren                                                                                    

                                     Karl Boehm                                                                                     

11/19/2022                                        WASHINGTON & LINCOLN INVESTMENTS                                        PAGE:    4
00:00                                             BROKER LARGE SALES REPORT TOTALS                                                  

                                                       SHARE PRICE:   $9.35                                                         

                                  NUMBER OF HIGH SALES BROKERS    TOTAL HIGH SALES SHARE AMOUNT                                     
                                  ----------------------------    -----------------------------                                     

                                                            20                   4,362,388.2710                                     
!! END OF JES SPOOL FILE !!
